(dp1
S'VerboseTest'
p2
(dp3
S'VerboseTest228'
p4
(dp5
S'LOC'
p6
I85
ssS'VerboseTest229'
p7
(dp8
g6
I38
ssS'VerboseTest224'
p9
(dp10
g6
I39
ssS'VerboseTest225'
p11
(dp12
g6
I33
ssS'VerboseTest226'
p13
(dp14
g6
I73
ssS'VerboseTest227'
p15
(dp16
g6
I15
ssS'VerboseTest220'
p17
(dp18
g6
I21
ssS'VerboseTest221'
p19
(dp20
g6
I31
ssS'VerboseTest222'
p21
(dp22
g6
I46
ssS'VerboseTest223'
p23
(dp24
g6
I15
ssS'VerboseTest347'
p25
(dp26
g6
I22
ssS'VerboseTest346'
p27
(dp28
g6
I57
ssS'VerboseTest345'
p29
(dp30
g6
I21
ssS'VerboseTest344'
p31
(dp32
g6
I64
ssS'VerboseTest343'
p33
(dp34
g6
I19
ssS'VerboseTest342'
p35
(dp36
g6
I37
ssS'VerboseTest341'
p37
(dp38
g6
I48
ssS'VerboseTest340'
p39
(dp40
g6
I18
ssS'VerboseTest349'
p41
(dp42
g6
I19
ssS'VerboseTest348'
p43
(dp44
g6
I19
ssS'VerboseTest378'
p45
(dp46
g6
I26
ssS'VerboseTest379'
p47
(dp48
g6
I62
ssS'VerboseTest123'
p49
(dp50
g6
I32
ssS'VerboseTest122'
p51
(dp52
g6
I44
ssS'VerboseTest121'
p53
(dp54
g6
I22
ssS'VerboseTest120'
p55
(dp56
g6
I22
ssS'VerboseTest127'
p57
(dp58
g6
I17
ssS'VerboseTest126'
p59
(dp60
g6
I112
ssS'VerboseTest125'
p61
(dp62
g6
I18
ssS'VerboseTest124'
p63
(dp64
g6
I40
ssS'VerboseTest129'
p65
(dp66
g6
I15
ssS'VerboseTest128'
p67
(dp68
g6
I27
ssS'VerboseTest370'
p69
(dp70
g6
I68
ssS'VerboseTest371'
p71
(dp72
g6
I73
ssS'VerboseTest65'
p73
(dp74
g6
I23
ssS'VerboseTest64'
p75
(dp76
g6
I32
ssS'VerboseTest67'
p77
(dp78
g6
I36
ssS'VerboseTest66'
p79
(dp80
g6
I104
ssS'VerboseTest61'
p81
(dp82
g6
I20
ssS'VerboseTest60'
p83
(dp84
g6
I15
ssS'VerboseTest63'
p85
(dp86
g6
I24
ssS'VerboseTest62'
p87
(dp88
g6
I16
ssS'VerboseTest69'
p89
(dp90
g6
I20
ssS'VerboseTest68'
p91
(dp92
g6
I15
ssS'VerboseTest156'
p93
(dp94
g6
I17
ssS'VerboseTest157'
p95
(dp96
g6
I24
ssS'VerboseTest154'
p97
(dp98
g6
I22
ssS'VerboseTest155'
p99
(dp100
g6
I18
ssS'VerboseTest152'
p101
(dp102
g6
I25
ssS'VerboseTest153'
p103
(dp104
g6
I51
ssS'VerboseTest150'
p105
(dp106
g6
I18
ssS'VerboseTest151'
p107
(dp108
g6
I31
ssS'VerboseTest158'
p109
(dp110
g6
I20
ssS'VerboseTest159'
p111
(dp112
g6
I19
ssS'VerboseTest10'
p113
(dp114
g6
I120
ssS'VerboseTest11'
p115
(dp116
g6
I25
ssS'VerboseTest12'
p117
(dp118
g6
I42
ssS'VerboseTest13'
p119
(dp120
g6
I27
ssS'VerboseTest14'
p121
(dp122
g6
I15
ssS'VerboseTest15'
p123
(dp124
g6
I18
ssS'VerboseTest16'
p125
(dp126
g6
I32
ssS'VerboseTest17'
p127
(dp128
g6
I52
ssS'VerboseTest18'
p129
(dp130
g6
I57
ssS'VerboseTest19'
p131
(dp132
g6
I15
ssS'VerboseTest309'
p133
(dp134
g6
I20
ssS'VerboseTest308'
p135
(dp136
g6
I33
ssS'VerboseTest303'
p137
(dp138
g6
I16
ssS'VerboseTest302'
p139
(dp140
g6
I40
ssS'VerboseTest301'
p141
(dp142
g6
I23
ssS'VerboseTest300'
p143
(dp144
g6
I27
ssS'VerboseTest307'
p145
(dp146
g6
I26
ssS'VerboseTest306'
p147
(dp148
g6
I17
ssS'VerboseTest305'
p149
(dp150
g6
I28
ssS'VerboseTest304'
p151
(dp152
g6
I54
ssS'VerboseTest277'
p153
(dp154
g6
I17
ssS'VerboseTest276'
p155
(dp156
g6
I43
ssS'VerboseTest275'
p157
(dp158
g6
I17
ssS'VerboseTest274'
p159
(dp160
g6
I31
ssS'VerboseTest273'
p161
(dp162
g6
I20
ssS'VerboseTest272'
p163
(dp164
g6
I19
ssS'VerboseTest271'
p165
(dp166
g6
I49
ssS'VerboseTest270'
p167
(dp168
g6
I17
ssS'VerboseTest376'
p169
(dp170
g6
I21
ssS'VerboseTest377'
p171
(dp172
g6
I66
ssS'VerboseTest374'
p173
(dp174
g6
I36
ssS'VerboseTest375'
p175
(dp176
g6
I65
ssS'VerboseTest372'
p177
(dp178
g6
I21
ssS'VerboseTest373'
p179
(dp180
g6
I20
ssS'VerboseTest279'
p181
(dp182
g6
I28
ssS'VerboseTest278'
p183
(dp184
g6
I28
ssS'VerboseTest413'
p185
(dp186
g6
I31
ssS'VerboseTest412'
p187
(dp188
g6
I21
ssS'VerboseTest411'
p189
(dp190
g6
I42
ssS'VerboseTest410'
p191
(dp192
g6
I40
ssS'VerboseTest417'
p193
(dp194
g6
I28
ssS'VerboseTest416'
p195
(dp196
g6
I42
ssS'VerboseTest415'
p197
(dp198
g6
I100
ssS'VerboseTest414'
p199
(dp200
g6
I21
ssS'VerboseTest419'
p201
(dp202
g6
I23
ssS'VerboseTest418'
p203
(dp204
g6
I15
ssS'VerboseTest392'
p205
(dp206
g6
I25
ssS'VerboseTest118'
p207
(dp208
g6
I73
ssS'VerboseTest119'
p209
(dp210
g6
I33
ssS'VerboseTest112'
p211
(dp212
g6
I17
ssS'VerboseTest113'
p213
(dp214
g6
I17
ssS'VerboseTest110'
p215
(dp216
g6
I25
ssS'VerboseTest111'
p217
(dp218
g6
I28
ssS'VerboseTest116'
p219
(dp220
g6
I31
ssS'VerboseTest117'
p221
(dp222
g6
I18
ssS'VerboseTest114'
p223
(dp224
g6
I26
ssS'VerboseTest115'
p225
(dp226
g6
I25
ssS'VerboseTest383'
p227
(dp228
g6
I15
ssS'VerboseTest382'
p229
(dp230
g6
I58
ssS'VerboseTest381'
p231
(dp232
g6
I26
ssS'VerboseTest380'
p233
(dp234
g6
I31
ssS'VerboseTest387'
p235
(dp236
g6
I46
ssS'VerboseTest386'
p237
(dp238
g6
I23
ssS'VerboseTest181'
p239
(dp240
g6
I18
ssS'VerboseTest180'
p241
(dp242
g6
I26
ssS'VerboseTest183'
p243
(dp244
g6
I33
ssS'VerboseTest182'
p245
(dp246
g6
I16
ssS'VerboseTest185'
p247
(dp248
g6
I16
ssS'VerboseTest184'
p249
(dp250
g6
I81
ssS'VerboseTest187'
p251
(dp252
g6
I38
ssS'VerboseTest186'
p253
(dp254
g6
I43
ssS'VerboseTest189'
p255
(dp256
g6
I15
ssS'VerboseTest188'
p257
(dp258
g6
I27
ssS'VerboseTest384'
p259
(dp260
g6
I15
ssS'VerboseTest29'
p261
(dp262
g6
I30
ssS'VerboseTest28'
p263
(dp264
g6
I17
ssS'VerboseTest21'
p265
(dp266
g6
I15
ssS'VerboseTest20'
p267
(dp268
g6
I20
ssS'VerboseTest23'
p269
(dp270
g6
I37
ssS'VerboseTest22'
p271
(dp272
g6
I17
ssS'VerboseTest25'
p273
(dp274
g6
I25
ssS'VerboseTest24'
p275
(dp276
g6
I32
ssS'VerboseTest27'
p277
(dp278
g6
I17
ssS'VerboseTest26'
p279
(dp280
g6
I21
ssS'VerboseTest239'
p281
(dp282
g6
I17
ssS'VerboseTest238'
p283
(dp284
g6
I48
ssS'VerboseTest233'
p285
(dp286
g6
I17
ssS'VerboseTest232'
p287
(dp288
g6
I26
ssS'VerboseTest231'
p289
(dp290
g6
I23
ssS'VerboseTest230'
p291
(dp292
g6
I17
ssS'VerboseTest237'
p293
(dp294
g6
I39
ssS'VerboseTest236'
p295
(dp296
g6
I46
ssS'VerboseTest235'
p297
(dp298
g6
I33
ssS'VerboseTest234'
p299
(dp300
g6
I15
ssS'VerboseTest332'
p301
(dp302
g6
I37
ssS'VerboseTest333'
p303
(dp304
g6
I17
ssS'VerboseTest330'
p305
(dp306
g6
I23
ssS'VerboseTest331'
p307
(dp308
g6
I104
ssS'VerboseTest336'
p309
(dp310
g6
I100
ssS'VerboseTest337'
p311
(dp312
g6
I31
ssS'VerboseTest334'
p313
(dp314
g6
I17
ssS'VerboseTest335'
p315
(dp316
g6
I27
ssS'VerboseTest338'
p317
(dp318
g6
I41
ssS'VerboseTest339'
p319
(dp320
g6
I15
ssS'VerboseTest248'
p321
(dp322
g6
I51
ssS'VerboseTest249'
p323
(dp324
g6
I85
ssS'VerboseTest246'
p325
(dp326
g6
I17
ssS'VerboseTest247'
p327
(dp328
g6
I26
ssS'VerboseTest244'
p329
(dp330
g6
I36
ssS'VerboseTest245'
p331
(dp332
g6
I24
ssS'VerboseTest242'
p333
(dp334
g6
I16
ssS'VerboseTest243'
p335
(dp336
g6
I33
ssS'VerboseTest240'
p337
(dp338
g6
I32
ssS'VerboseTest241'
p339
(dp340
g6
I20
ssS'VerboseTest422'
p341
(dp342
g6
I70
ssS'VerboseTest423'
p343
(dp344
g6
I16
ssS'VerboseTest420'
p345
(dp346
g6
I20
ssS'VerboseTest421'
p347
(dp348
g6
I125
ssS'VerboseTest424'
p349
(dp350
g6
I44
ssS'VerboseTest76'
p351
(dp352
g6
I69
ssS'VerboseTest77'
p353
(dp354
g6
I18
ssS'VerboseTest74'
p355
(dp356
g6
I73
ssS'VerboseTest75'
p357
(dp358
g6
I30
ssS'VerboseTest72'
p359
(dp360
g6
I18
ssS'VerboseTest73'
p361
(dp362
g6
I49
ssS'VerboseTest70'
p363
(dp364
g6
I48
ssS'VerboseTest71'
p365
(dp366
g6
I23
ssS'VerboseTest389'
p367
(dp368
g6
I20
ssS'VerboseTest388'
p369
(dp370
g6
I20
ssS'VerboseTest78'
p371
(dp372
g6
I16
ssS'VerboseTest79'
p373
(dp374
g6
I100
ssS'VerboseTest145'
p375
(dp376
g6
I67
ssS'VerboseTest144'
p377
(dp378
g6
I73
ssS'VerboseTest147'
p379
(dp380
g6
I66
ssS'VerboseTest146'
p381
(dp382
g6
I22
ssS'VerboseTest141'
p383
(dp384
g6
I18
ssS'VerboseTest140'
p385
(dp386
g6
I68
ssS'VerboseTest143'
p387
(dp388
g6
I27
ssS'VerboseTest142'
p389
(dp390
g6
I18
ssS'VerboseTest149'
p391
(dp392
g6
I20
ssS'VerboseTest148'
p393
(dp394
g6
I36
ssS'VerboseTest358'
p395
(dp396
g6
I42
ssS'VerboseTest359'
p397
(dp398
g6
I26
ssS'VerboseTest350'
p399
(dp400
g6
I15
ssS'VerboseTest351'
p401
(dp402
g6
I98
ssS'VerboseTest202'
p403
(dp404
g6
I19
ssS'VerboseTest203'
p405
(dp406
g6
I60
ssS'VerboseTest200'
p407
(dp408
g6
I29
ssS'VerboseTest201'
p409
(dp410
g6
I73
ssS'VerboseTest206'
p411
(dp412
g6
I97
ssS'VerboseTest207'
p413
(dp414
g6
I19
ssS'VerboseTest204'
p415
(dp416
g6
I73
ssS'VerboseTest205'
p417
(dp418
g6
I26
ssS'VerboseTest365'
p419
(dp420
g6
I76
ssS'VerboseTest364'
p421
(dp422
g6
I34
ssS'VerboseTest208'
p423
(dp424
g6
I25
ssS'VerboseTest209'
p425
(dp426
g6
I36
ssS'VerboseTest361'
p427
(dp428
g6
I73
ssS'VerboseTest360'
p429
(dp430
g6
I35
ssS'VerboseTest363'
p431
(dp432
g6
I21
ssS'VerboseTest362'
p433
(dp434
g6
I20
ssS'VerboseTest406'
p435
(dp436
g6
I50
ssS'VerboseTest109'
p437
(dp438
g6
I27
ssS'VerboseTest108'
p439
(dp440
g6
I15
ssS'VerboseTest101'
p441
(dp442
g6
I17
ssS'VerboseTest100'
p443
(dp444
g6
I28
ssS'VerboseTest103'
p445
(dp446
g6
I22
ssS'VerboseTest102'
p447
(dp448
g6
I32
ssS'VerboseTest105'
p449
(dp450
g6
I15
ssS'VerboseTest104'
p451
(dp452
g6
I28
ssS'VerboseTest107'
p453
(dp454
g6
I19
ssS'VerboseTest106'
p455
(dp456
g6
I28
ssS'VerboseTest89'
p457
(dp458
g6
I16
ssS'VerboseTest88'
p459
(dp460
g6
I54
ssS'VerboseTest87'
p461
(dp462
g6
I23
ssS'VerboseTest86'
p463
(dp464
g6
I57
ssS'VerboseTest85'
p465
(dp466
g6
I27
ssS'VerboseTest84'
p467
(dp468
g6
I73
ssS'VerboseTest83'
p469
(dp470
g6
I18
ssS'VerboseTest82'
p471
(dp472
g6
I15
ssS'VerboseTest81'
p473
(dp474
g6
I34
ssS'VerboseTest80'
p475
(dp476
g6
I15
ssS'VerboseTest38'
p477
(dp478
g6
I25
ssS'VerboseTest39'
p479
(dp480
g6
I31
ssS'VerboseTest32'
p481
(dp482
g6
I15
ssS'VerboseTest33'
p483
(dp484
g6
I16
ssS'VerboseTest30'
p485
(dp486
g6
I15
ssS'VerboseTest31'
p487
(dp488
g6
I37
ssS'VerboseTest36'
p489
(dp490
g6
I27
ssS'VerboseTest37'
p491
(dp492
g6
I16
ssS'VerboseTest34'
p493
(dp494
g6
I29
ssS'VerboseTest35'
p495
(dp496
g6
I57
ssS'VerboseTest394'
p497
(dp498
g6
I41
ssS'VerboseTest395'
p499
(dp500
g6
I36
ssS'VerboseTest396'
p501
(dp502
g6
I37
ssS'VerboseTest397'
p503
(dp504
g6
I16
ssS'VerboseTest390'
p505
(dp506
g6
I18
ssS'VerboseTest391'
p507
(dp508
g6
I101
ssS'VerboseTest321'
p509
(dp510
g6
I19
ssS'VerboseTest320'
p511
(dp512
g6
I42
ssS'VerboseTest323'
p513
(dp514
g6
I40
ssS'VerboseTest322'
p515
(dp516
g6
I44
ssS'VerboseTest325'
p517
(dp518
g6
I112
ssS'VerboseTest324'
p519
(dp520
g6
I20
ssS'VerboseTest327'
p521
(dp522
g6
I32
ssS'VerboseTest326'
p523
(dp524
g6
I36
ssS'VerboseTest329'
p525
(dp526
g6
I16
ssS'VerboseTest328'
p527
(dp528
g6
I25
ssS'VerboseTest393'
p529
(dp530
g6
I65
ssS'VerboseTest398'
p531
(dp532
g6
I23
ssS'VerboseTest399'
p533
(dp534
g6
I38
ssS'VerboseTest259'
p535
(dp536
g6
I34
ssS'VerboseTest258'
p537
(dp538
g6
I18
ssS'VerboseTest255'
p539
(dp540
g6
I31
ssS'VerboseTest254'
p541
(dp542
g6
I54
ssS'VerboseTest257'
p543
(dp544
g6
I242
ssS'VerboseTest256'
p545
(dp546
g6
I32
ssS'VerboseTest251'
p547
(dp548
g6
I27
ssS'VerboseTest250'
p549
(dp550
g6
I51
ssS'VerboseTest253'
p551
(dp552
g6
I19
ssS'VerboseTest252'
p553
(dp554
g6
I73
ssS'VerboseTest43'
p555
(dp556
g6
I21
ssS'VerboseTest42'
p557
(dp558
g6
I44
ssS'VerboseTest41'
p559
(dp560
g6
I19
ssS'VerboseTest40'
p561
(dp562
g6
I31
ssS'VerboseTest47'
p563
(dp564
g6
I15
ssS'VerboseTest46'
p565
(dp566
g6
I56
ssS'VerboseTest45'
p567
(dp568
g6
I55
ssS'VerboseTest44'
p569
(dp570
g6
I95
ssS'VerboseTest49'
p571
(dp572
g6
I22
ssS'VerboseTest48'
p573
(dp574
g6
I15
ssS'VerboseTest170'
p575
(dp576
g6
I39
ssS'VerboseTest171'
p577
(dp578
g6
I118
ssS'VerboseTest172'
p579
(dp580
g6
I19
ssS'VerboseTest173'
p581
(dp582
g6
I16
ssS'VerboseTest174'
p583
(dp584
g6
I24
ssS'VerboseTest175'
p585
(dp586
g6
I17
ssS'VerboseTest176'
p587
(dp588
g6
I49
ssS'VerboseTest177'
p589
(dp590
g6
I17
ssS'VerboseTest178'
p591
(dp592
g6
I15
ssS'VerboseTest179'
p593
(dp594
g6
I17
ssS'VerboseTest288'
p595
(dp596
g6
I18
ssS'VerboseTest289'
p597
(dp598
g6
I50
ssS'VerboseTest282'
p599
(dp600
g6
I29
ssS'VerboseTest283'
p601
(dp602
g6
I21
ssS'VerboseTest280'
p603
(dp604
g6
I28
ssS'VerboseTest281'
p605
(dp606
g6
I129
ssS'VerboseTest286'
p607
(dp608
g6
I15
ssS'VerboseTest287'
p609
(dp610
g6
I19
ssS'VerboseTest284'
p611
(dp612
g6
I23
ssS'VerboseTest285'
p613
(dp614
g6
I16
ssS'VerboseTest369'
p615
(dp616
g6
I18
ssS'VerboseTest368'
p617
(dp618
g6
I23
ssS'VerboseTest211'
p619
(dp620
g6
I41
ssS'VerboseTest210'
p621
(dp622
g6
I19
ssS'VerboseTest213'
p623
(dp624
g6
I15
ssS'VerboseTest212'
p625
(dp626
g6
I32
ssS'VerboseTest215'
p627
(dp628
g6
I40
ssS'VerboseTest214'
p629
(dp630
g6
I18
ssS'VerboseTest217'
p631
(dp632
g6
I43
ssS'VerboseTest216'
p633
(dp634
g6
I17
ssS'VerboseTest219'
p635
(dp636
g6
I61
ssS'VerboseTest218'
p637
(dp638
g6
I55
ssS'VerboseTest352'
p639
(dp640
g6
I24
ssS'VerboseTest353'
p641
(dp642
g6
I38
ssS'VerboseTest354'
p643
(dp644
g6
I15
ssS'VerboseTest355'
p645
(dp646
g6
I73
ssS'VerboseTest356'
p647
(dp648
g6
I17
ssS'VerboseTest357'
p649
(dp650
g6
I16
ssS'VerboseTest367'
p651
(dp652
g6
I36
ssS'VerboseTest366'
p653
(dp654
g6
I20
ssS'VerboseTest134'
p655
(dp656
g6
I17
ssS'VerboseTest135'
p657
(dp658
g6
I16
ssS'VerboseTest136'
p659
(dp660
g6
I24
ssS'VerboseTest137'
p661
(dp662
g6
I16
ssS'VerboseTest130'
p663
(dp664
g6
I26
ssS'VerboseTest131'
p665
(dp666
g6
I19
ssS'VerboseTest132'
p667
(dp668
g6
I23
ssS'VerboseTest133'
p669
(dp670
g6
I16
ssS'VerboseTest138'
p671
(dp672
g6
I16
ssS'VerboseTest139'
p673
(dp674
g6
I28
ssS'VerboseTest98'
p675
(dp676
g6
I124
ssS'VerboseTest99'
p677
(dp678
g6
I17
ssS'VerboseTest90'
p679
(dp680
g6
I29
ssS'VerboseTest91'
p681
(dp682
g6
I62
ssS'VerboseTest92'
p683
(dp684
g6
I15
ssS'VerboseTest93'
p685
(dp686
g6
I19
ssS'VerboseTest94'
p687
(dp688
g6
I15
ssS'VerboseTest95'
p689
(dp690
g6
I53
ssS'VerboseTest96'
p691
(dp692
g6
I37
ssS'VerboseTest97'
p693
(dp694
g6
I16
ssS'VerboseTest318'
p695
(dp696
g6
I20
ssS'VerboseTest319'
p697
(dp698
g6
I73
ssS'VerboseTest314'
p699
(dp700
g6
I39
ssS'VerboseTest315'
p701
(dp702
g6
I52
ssS'VerboseTest316'
p703
(dp704
g6
I17
ssS'VerboseTest317'
p705
(dp706
g6
I48
ssS'VerboseTest310'
p707
(dp708
g6
I16
ssS'VerboseTest311'
p709
(dp710
g6
I25
ssS'VerboseTest312'
p711
(dp712
g6
I174
ssS'VerboseTest313'
p713
(dp714
g6
I82
ssS'VerboseTest268'
p715
(dp716
g6
I36
ssS'VerboseTest269'
p717
(dp718
g6
I33
ssS'VerboseTest260'
p719
(dp720
g6
I25
ssS'VerboseTest261'
p721
(dp722
g6
I26
ssS'VerboseTest262'
p723
(dp724
g6
I20
ssS'VerboseTest263'
p725
(dp726
g6
I26
ssS'VerboseTest264'
p727
(dp728
g6
I25
ssS'VerboseTest265'
p729
(dp730
g6
I30
ssS'VerboseTest266'
p731
(dp732
g6
I34
ssS'VerboseTest267'
p733
(dp734
g6
I31
ssS'VerboseTest404'
p735
(dp736
g6
I50
ssS'VerboseTest405'
p737
(dp738
g6
I35
ssS'VerboseTest385'
p739
(dp740
g6
I15
ssS'VerboseTest407'
p741
(dp742
g6
I41
ssS'VerboseTest400'
p743
(dp744
g6
I73
ssS'VerboseTest401'
p745
(dp746
g6
I179
ssS'VerboseTest402'
p747
(dp748
g6
I74
ssS'VerboseTest403'
p749
(dp750
g6
I22
ssS'VerboseTest408'
p751
(dp752
g6
I25
ssS'VerboseTest409'
p753
(dp754
g6
I22
ssS'VerboseTest169'
p755
(dp756
g6
I42
ssS'VerboseTest168'
p757
(dp758
g6
I25
ssS'VerboseTest167'
p759
(dp760
g6
I33
ssS'VerboseTest166'
p761
(dp762
g6
I25
ssS'VerboseTest165'
p763
(dp764
g6
I21
ssS'VerboseTest164'
p765
(dp766
g6
I19
ssS'VerboseTest163'
p767
(dp768
g6
I17
ssS'VerboseTest162'
p769
(dp770
g6
I22
ssS'VerboseTest161'
p771
(dp772
g6
I91
ssS'VerboseTest160'
p773
(dp774
g6
I35
ssS'VerboseTest2'
p775
(dp776
g6
I27
ssS'VerboseTest3'
p777
(dp778
g6
I66
ssS'VerboseTest0'
p779
(dp780
g6
I32
ssS'VerboseTest1'
p781
(dp782
g6
I23
ssS'VerboseTest6'
p783
(dp784
g6
I22
ssS'VerboseTest7'
p785
(dp786
g6
I70
ssS'VerboseTest4'
p787
(dp788
g6
I49
ssS'VerboseTest5'
p789
(dp790
g6
I15
ssS'VerboseTest8'
p791
(dp792
g6
I53
ssS'VerboseTest9'
p793
(dp794
g6
I16
ssS'VerboseTest299'
p795
(dp796
g6
I95
ssS'VerboseTest298'
p797
(dp798
g6
I18
ssS'VerboseTest291'
p799
(dp800
g6
I31
ssS'VerboseTest290'
p801
(dp802
g6
I15
ssS'VerboseTest293'
p803
(dp804
g6
I54
ssS'VerboseTest292'
p805
(dp806
g6
I60
ssS'VerboseTest295'
p807
(dp808
g6
I18
ssS'VerboseTest294'
p809
(dp810
g6
I91
ssS'VerboseTest297'
p811
(dp812
g6
I108
ssS'VerboseTest296'
p813
(dp814
g6
I57
ssS'VerboseTest192'
p815
(dp816
g6
I24
ssS'VerboseTest193'
p817
(dp818
g6
I17
ssS'VerboseTest190'
p819
(dp820
g6
I44
ssS'VerboseTest191'
p821
(dp822
g6
I32
ssS'VerboseTest196'
p823
(dp824
g6
I17
ssS'VerboseTest197'
p825
(dp826
g6
I73
ssS'VerboseTest194'
p827
(dp828
g6
I73
ssS'VerboseTest195'
p829
(dp830
g6
I16
ssS'VerboseTest198'
p831
(dp832
g6
I25
ssS'VerboseTest199'
p833
(dp834
g6
I18
ssS'VerboseTest58'
p835
(dp836
g6
I20
ssS'VerboseTest59'
p837
(dp838
g6
I22
ssS'VerboseTest54'
p839
(dp840
g6
I26
ssS'VerboseTest55'
p841
(dp842
g6
I26
ssS'VerboseTest56'
p843
(dp844
g6
I89
ssS'VerboseTest57'
p845
(dp846
g6
I21
ssS'VerboseTest50'
p847
(dp848
g6
I29
ssS'VerboseTest51'
p849
(dp850
g6
I22
ssS'VerboseTest52'
p851
(dp852
g6
I82
ssS'VerboseTest53'
p853
(dp854
g6
I36
sssS'testcommand'
p855
(dp856
S'ChildNodesTest.testChildNodes()'
p857
(dp858
S'SLOC'
p859
I32
ssS'HTMLFormTest.testReadUrl1()'
p860
(dp861
g859
I7
ssS'StreamCopierTest.testBufferedCopy()'
p862
(dp863
g859
I36
ssS'HTTPClientSessionTest.testPostLargeClose()'
p864
(dp865
g859
I12
ssS'DateTimeFormatterTest.testRFC1036()'
p866
(dp867
g859
I7
ssS'DocumentTest.testElementsByTagName()'
p868
(dp869
g859
I23
ssS'AbstractConfigurationTest.testGetInt()'
p870
(dp871
g859
I10
ssS'SMTPClientSessionTest.testLoginHELO()'
p872
(dp873
g859
I14
ssS'NodeTest.testReplace()'
p874
(dp875
g859
I66
ssS'DateTimeParserTest.testRFC822()'
p876
(dp877
g859
I49
ssS'LayeredConfigurationTest.testOneLayer()'
p878
(dp879
g859
I14
ssS'FileChannelTest.testArchive()'
p880
(dp881
g859
I15
ssS'ByteOrderTest.testByteOrderNetwork()'
p882
(dp883
g859
I100
ssS'DateTimeFormatterTest.testCustom()'
p884
(dp885
g859
I3
ssS'ZLibTest.testGzip2()'
p886
(dp887
g859
I9
ssS'SQLiteTest.testInsertSingleBulk()'
p888
(dp889
g859
I10
ssS'DatagramSocketTest.testBroadcast()'
p890
(dp891
g859
I12
ssS'HashSetTest.testConstIterator()'
p892
(dp893
g859
I13
ssS'DateTimeTest.testGregorian()'
p894
(dp895
g859
I22
ssS'NamedTuplesTest.testNamedTuple19()'
p896
(dp897
g859
I70
ssS'HTTPRequestTest.testRead2()'
p898
(dp899
g859
I12
ssS'NamedTuplesTest.testNamedTuple13()'
p900
(dp901
g859
I53
ssS'POP3ClientSessionTest.testRetrieveMessage()'
p902
(dp903
g859
I15
ssS'LoggingConfiguratorTest.testBadConfiguration1()'
p904
(dp905
g859
I6
ssS'LinearHashTableTest.testConstIterator()'
p906
(dp907
g859
I21
ssS'PathTest.testParseWindows2()'
p908
(dp909
g859
I120
ssS'NotificationQueueTest.testQueueDequeueUrgent()'
p910
(dp911
g859
I25
ssS'MessageHeaderTest.testReadFolding3()'
p912
(dp913
g859
I7
ssS'HTTPResponseTest.testRead1()'
p914
(dp915
g859
I9
ssS'BasicEventTest.testNoDelegate()'
p916
(dp917
g859
I42
ssS'FTPStreamFactoryTest.testUserInfo()'
p918
(dp919
g859
I27
ssS'FileStreamTest.testReadWrite()'
p920
(dp921
g859
I14
ssS'AnyTest.testInt()'
p922
(dp923
g859
I15
ssS'DocumentTest.testElementById()'
p924
(dp925
g859
I27
ssS'FPETest.testFlags()'
p926
(dp927
g859
I18
ssS'TextTest.testSubstring()'
p928
(dp929
g859
I8
ssS'AsyncIOChannelTest.testEvents()'
p930
(dp931
g859
I32
ssS'LinearHashTableTest.testPerformanceInt()'
p932
(dp933
g859
I52
ssS'NullStreamTest.testOutput()'
p934
(dp935
g859
I4
ssS'RWLockTest.testLock()'
p936
(dp937
g859
I28
ssS'TaskTest.testFinish()'
p938
(dp939
g859
I15
ssS'StringTest.testToUpper()'
p940
(dp941
g859
I8
ssS'LocalDateTimeTest.testGregorian1()'
p942
(dp943
g859
I20
ssS'XMLWriterTest.testTrivialDeclPretty()'
p944
(dp945
g859
I9
ssS'SimpleHashTableTest.testSize()'
p946
(dp947
g859
I8
ssS'HTTPServerTest.testIdentityRequest()'
p948
(dp949
g859
I17
ssS'PatternFormatterTest.testPatternFormatter()'
p950
(dp951
g859
I37
ssS'ElementTest.testAttrMap()'
p952
(dp953
g859
I32
ssS'DataTest.testRow()'
p954
(dp955
g859
I10
ssS'HashMapTest.testIndex()'
p956
(dp957
g859
I12
ssS'ActiveDispatcherTest.testVoidInOut()'
p958
(dp959
g859
I7
ssS'FIFOEventTest.testSingleDelegate()'
p960
(dp961
g859
I25
ssS'EventTest.testCancel()'
p962
(dp963
g859
I21
ssS'TuplesTest.testTuple8()'
p964
(dp965
g859
I8
ssS'SQLiteTest.testTupleVector6()'
p966
(dp967
g859
I10
ssS'FileChannelTest.testRotateAtTimeHourUTC()'
p968
(dp969
g859
I16
ssS'StringTest.testTrim()'
p970
(dp971
g859
I6
ssS'DynamicFactoryTest.testDynamicFactory()'
p972
(dp973
g859
I17
ssS'ThreadTest.testThread()'
p974
(dp975
g859
I11
ssS'ODBCTest.testBLOBStmt()'
p976
(dp977
g859
I10
ssS'ODBCTest.testStoredProcedureAny()'
p978
(dp979
g859
I10
ssS'BasicEventTest.testExpire()'
p980
(dp981
g859
I17
ssS'LineEndingConverterTest.testInputMacToUnix()'
p982
(dp983
g859
I6
ssS'NamedTuplesTest.testNamedTuple4()'
p984
(dp985
g859
I30
ssS'NodeTest.testInsertFragment1()'
p986
(dp987
g859
I48
ssS'HTTPRequestTest.testCookies()'
p988
(dp989
g859
I18
ssS'SQLiteTest.testTuple7()'
p990
(dp991
g859
I10
ssS'TextConverterTest.testLatin1toUTF8()'
p992
(dp993
g859
I15
ssS'SQLiteTest.testTuple6()'
p994
(dp995
g859
I10
ssS'FileChannelTest.testRotateAtTimeMinUTC()'
p996
(dp997
g859
I16
ssS'ODBCTest.testLimitZero()'
p998
(dp999
g859
I10
ssS'SharedMemoryTest.testCreate()'
p1000
(dp1001
g859
I4
ssS'HTTPCredentialsTest.testBadCredentials()'
p1002
(dp1003
g859
I11
ssS'DynamicAnyTest.testIsArray()'
p1004
(dp1005
g859
I51
ssS'NameTest.testLocalName()'
p1006
(dp1007
g859
I9
ssS'DynamicAnyTest.testJSONDeserializePrimitives()'
p1008
(dp1009
g859
I29
ssS'DynamicAnyTest.testJSONDeserializeComplex()'
p1010
(dp1011
g859
I57
ssS'FIFOEventTest.testDuplicateUnregister()'
p1012
(dp1013
g859
I14
ssS'LineEndingConverterTest.testInputUnixToDos()'
p1014
(dp1015
g859
I6
ssS'PathTest.testFind()'
p1016
(dp1017
g859
I11
ssS'UUIDTest.testVariant()'
p1018
(dp1019
g859
I12
ssS'StringTest.testTranslateInPlace()'
p1020
(dp1021
g859
I3
ssS'MailMessageTest.testWriteBase64()'
p1022
(dp1023
g859
I12
ssS'HTTPRequestTest.testInvalid2()'
p1024
(dp1025
g859
I7
ssS'TimespanTest.testSwap()'
p1026
(dp1027
g859
I5
ssS'SQLiteTest.testSQLChannel()'
p1028
(dp1029
g859
I10
ssS'FileChannelTest.testRotateByAge()'
p1030
(dp1031
g859
I17
ssS'AbstractConfigurationTest.testSetInt()'
p1032
(dp1033
g859
I5
ssS'PathTest.testParseGuess()'
p1034
(dp1035
g859
I54
ssS'PropertyFileConfigurationTest.testLoad()'
p1036
(dp1037
g859
I25
ssS'SocketStreamTest.testStreamEcho()'
p1038
(dp1039
g859
I15
ssS'SocketAddressTest.testSocketAddress()'
p1040
(dp1041
g859
I31
ssS'IPAddressTest.testParse()'
p1042
(dp1043
g859
I6
ssS'SocketTest.testEcho()'
p1044
(dp1045
g859
I10
ssS'SQLiteTest.testRowIterator()'
p1046
(dp1047
g859
I10
ssS'DynamicAnyTest.testStructWithArraysToString()'
p1048
(dp1049
g859
I19
ssS'Base64Test.testDecoder()'
p1050
(dp1051
g859
I44
ssS'FIFOEventTest.testDisabling()'
p1052
(dp1053
g859
I14
ssS'ConfigurationMapperTest.testMapper2()'
p1054
(dp1055
g859
I21
ssS'PathTest.testParseWindows4()'
p1056
(dp1057
g859
I95
ssS'NamedTuplesTest.testNamedTuple14()'
p1058
(dp1059
g859
I55
ssS'DocumentTest.testImportDeep()'
p1060
(dp1061
g859
I19
ssS'RegularExpressionTest.testMatch3()'
p1062
(dp1063
g859
I16
ssS'SQLiteTest.testComplexTypeVector()'
p1064
(dp1065
g859
I10
ssS'EventTest.testCharacterData()'
p1066
(dp1067
g859
I21
ssS'TextIteratorTest.testOneLatin1()'
p1068
(dp1069
g859
I8
ssS'TaskManagerTest.testCustom()'
p1070
(dp1071
g859
I56
ssS'SQLiteTest.testTupleVector10()'
p1072
(dp1073
g859
I10
ssS'ODBCTest.testSQLLogger()'
p1074
(dp1075
g859
I10
ssS'TimespanTest.testArithmetics()'
p1076
(dp1077
g859
I15
ssS'NotificationQueueTest.testThreads()'
p1078
(dp1079
g859
I22
ssS'DateTimeTest.testSwap()'
p1080
(dp1081
g859
I7
ssS'ODBCTest.testMapComplex()'
p1082
(dp1083
g859
I10
ssS'DateTimeFormatterTest.testRFC850()'
p1084
(dp1085
g859
I7
ssS'PropertyFileConfigurationTest.testSave()'
p1086
(dp1087
g859
I7
ssS'StreamTokenizerTest.testTokenizer7()'
p1088
(dp1089
g859
I14
ssS'HashTableTest.testOverflow()'
p1090
(dp1091
g859
I11
ssS'HTTPClientSessionTest.testGetSmall()'
p1092
(dp1093
g859
I11
ssS'RegularExpressionTest.testSubst2()'
p1094
(dp1095
g859
I4
ssS'BasicEventTest.testReturnParams()'
p1096
(dp1097
g859
I5
ssS'AbstractConfigurationTest.testExpand()'
p1098
(dp1099
g859
I14
ssS'SAXParserTest.testComment()'
p1100
(dp1101
g859
I3
ssS'HTTPSClientSessionTest.testGetSmall()'
p1102
(dp1103
g859
I10
ssS'SocketTest.testTimeout()'
p1104
(dp1105
g859
I22
ssS'ExpireCacheTest.testDuplicateAdd()'
p1106
(dp1107
g859
I7
ssS'SQLiteTest.testTupleVector3()'
p1108
(dp1109
g859
I10
ssS'ActiveMethodTest.testVoidIn()'
p1110
(dp1111
g859
I7
ssS'NotificationCenterTest.test2()'
p1112
(dp1113
g859
I6
ssS'SocketTest.testConnectRefused()'
p1114
(dp1115
g859
I9
ssS'ODBCTest.testComplexTypeVector()'
p1116
(dp1117
g859
I10
ssS'LRUCacheTest.testCacheSize2()'
p1118
(dp1119
g859
I26
ssS'TeeStreamTest.testTeeInputStream()'
p1120
(dp1121
g859
I7
ssS'DynamicAnyTest.testLimitsUnsigned()'
p1122
(dp1123
g859
I10
ssS'UUIDTest.testSwap()'
p1124
(dp1125
g859
I5
ssS'ElementTest.testAttributes()'
p1126
(dp1127
g859
I89
ssS'NodeAppenderTest.testAppendNode()'
p1128
(dp1129
g859
I21
ssS'POP3ClientSessionTest.testDeleteMessage()'
p1130
(dp1131
g859
I13
ssS'DataTest.testColumnDeque()'
p1132
(dp1133
g859
I10
ssS'NotificationQueueTest.testDefaultQueue()'
p1134
(dp1135
g859
I3
ssS'DynamicAnyTest.testStructToString()'
p1136
(dp1137
g859
I9
ssS'OptionTest.testMatches1()'
p1138
(dp1139
g859
I15
ssS'MailMessageTest.testWriteManyRecipients()'
p1140
(dp1141
g859
I20
ssS'UniqueExpireLRUCacheTest.testCacheSize1()'
p1142
(dp1143
g859
I16
ssS'FormatTest.testFloatFix()'
p1144
(dp1145
g859
I12
ssS'NumberFormatterTest.testFormatHex()'
p1146
(dp1147
g859
I24
ssS'RandomTest.testDistribution3()'
p1148
(dp1149
g859
I23
ssS'ElementTest.testElementsByTagNameNS()'
p1150
(dp1151
g859
I82
ssS'LineEndingConverterTest.testOutputMacToUnix()'
p1152
(dp1153
g859
I5
ssS'ODBCTest.testSetComplexUnique()'
p1154
(dp1155
g859
I10
ssS'FTPClientSessionTest.testDownloadPASV()'
p1156
(dp1157
g859
I23
ssS'DialogSocketTest.testDialogSocket()'
p1158
(dp1159
g859
I32
ssS'XMLWriterTest.testEmptyDataPretty()'
p1160
(dp1161
g859
I10
ssS'MessageHeaderTest.testReadFolding2()'
p1162
(dp1163
g859
I8
ssS'DynamicAnyTest.testLimitsFloat()'
p1164
(dp1165
g859
I11
ssS'SocketAddressTest.testSocketAddress6()'
p1166
(dp1167
g859
I0
ssS'GlobTest.testMatchRange()'
p1168
(dp1169
g859
I82
ssS'ActivityTest.testActivity()'
p1170
(dp1171
g859
I9
ssS'FormatTest.testInt()'
p1172
(dp1173
g859
I97
ssS'DocumentTest.testElementsByTagNameNS()'
p1174
(dp1175
g859
I23
ssS'SharedPtrTest.testSharedPtr()'
p1176
(dp1177
g859
I53
ssS'ODBCTest.testInternalBulkExtraction()'
p1178
(dp1179
g859
I10
ssS'NodeTest.testInsertFragment3()'
p1180
(dp1181
g859
I104
ssS'StringTest.testIcompare()'
p1182
(dp1183
g859
I36
ssS'ChannelTest.testStream()'
p1184
(dp1185
g859
I7
ssS'DynamicAnyTest.testCtor()'
p1186
(dp1187
g859
I6
ssS'NodeIteratorTest.testShowElements()'
p1188
(dp1189
g859
I20
ssS'AutoPtrTest.testOps()'
p1190
(dp1191
g859
I48
ssS'DataTest.testSession()'
p1192
(dp1193
g859
I10
ssS'HTTPStreamFactoryTest.testEmptyPath()'
p1194
(dp1195
g859
I8
ssS'HTTPSServerTest.testIdentityRequestKeepAlive()'
p1196
(dp1197
g859
I10
ssS'DataTest.testStatementFormatting()'
p1198
(dp1199
g859
I10
ssS'HTTPSServerTest.testClosedRequest()'
p1200
(dp1201
g859
I10
ssS'MultipartReaderTest.testPreamble()'
p1202
(dp1203
g859
I18
ssS'ODBCTest.testSimpleAccessVector()'
p1204
(dp1205
g859
I10
ssS'SMTPClientSessionTest.testSendFailed()'
p1206
(dp1207
g859
I19
ssS'StringTest.testToLower()'
p1208
(dp1209
g859
I8
ssS'UUIDGeneratorTest.testNameBased()'
p1210
(dp1211
g859
I14
ssS'SQLiteTest.testMapComplexUnique()'
p1212
(dp1213
g859
I10
ssS'NamedTuplesTest.testNamedTuple11()'
p1214
(dp1215
g859
I49
ssS'LineEndingConverterTest.testInputDosToUnix()'
p1216
(dp1217
g859
I6
ssS'ActiveDispatcherTest.testWait()'
p1218
(dp1219
g859
I8
ssS'DynamicAnyTest.testDouble()'
p1220
(dp1221
g859
I73
ssS'MultipartReaderTest.testReadLongPart()'
p1222
(dp1223
g859
I30
ssS'PathTest.testParseVMS1()'
p1224
(dp1225
g859
I69
ssS'LoggerTest.testFormat()'
p1226
(dp1227
g859
I18
ssS'FileChannelTest.testRotateAtTimeDayLocal()'
p1228
(dp1229
g859
I16
ssS'AbstractConfigurationTest.testSetDouble()'
p1230
(dp1231
g859
I5
ssS'ByteOrderTest.testByteOrderBigEndian()'
p1232
(dp1233
g859
I100
ssS'ElementTest.testChildElement()'
p1234
(dp1235
g859
I15
ssS'MailMessageTest.testReadMultiPart()'
p1236
(dp1237
g859
I11
ssS'TreeWalkerTest.testShowElements()'
p1238
(dp1239
g859
I34
ssS'UniqueExpireCacheTest.testDuplicateAdd()'
p1240
(dp1241
g859
I7
ssS'DynamicAnyTest.testDate()'
p1242
(dp1243
g859
I15
ssS'FileStreamTest.testOpenModeOut()'
p1244
(dp1245
g859
I17
ssS'TuplesTest.testTuple11()'
p1246
(dp1247
g859
I9
ssS'DynamicAnyTest.testInt64()'
p1248
(dp1249
g859
I73
ssS'SAXParserTest.testDefaultNamespace()'
p1250
(dp1251
g859
I3
ssS'XMLWriterTest.testCDATA()'
p1252
(dp1253
g859
I11
ssS'MultipartReaderTest.testUnixLineEnds()'
p1254
(dp1255
g859
I27
ssS'DynamicAnyTest.testBool()'
p1256
(dp1257
g859
I57
ssS'AbstractConfigurationTest.testSetBool()'
p1258
(dp1259
g859
I5
ssS'SocketTest.testOptions()'
p1260
(dp1261
g859
I23
ssS'HTTPSClientSessionTest.testPostSmallChunked()'
p1262
(dp1263
g859
I10
ssS'FTPClientSessionTest.testLogin()'
p1264
(dp1265
g859
I16
ssS'HTTPSClientSessionTest.testHead()'
p1266
(dp1267
g859
I10
ssS'XMLWriterTest.testDataPretty()'
p1268
(dp1269
g859
I10
ssS'DateTimeFormatterTest.testRFC822()'
p1270
(dp1271
g859
I7
ssS'MediaTypeTest.testParse()'
p1272
(dp1273
g859
I15
ssS'HTTPRequestTest.testWrite1()'
p1274
(dp1275
g859
I5
ssS'SAXParserTest.testEncoding()'
p1276
(dp1277
g859
I13
ssS'ConfigurationMapperTest.testMapper4()'
p1278
(dp1279
g859
I15
ssS'HTTPServerTest.test100Continue()'
p1280
(dp1281
g859
I18
ssS'ODBCTest.testPrepare()'
p1282
(dp1283
g859
I10
ssS'ICMPSocketTest.testSendToReceiveFrom()'
p1284
(dp1285
g859
I9
ssS'NotificationCenterTest.test5()'
p1286
(dp1287
g859
I13
ssS'NodeIteratorTest.testShowAll()'
p1288
(dp1289
g859
I24
ssS'HTTPStreamFactoryTest.testNoRedirect()'
p1290
(dp1291
g859
I8
ssS'ActiveDispatcherTest.testFailure()'
p1292
(dp1293
g859
I7
ssS'SimpleHashTableTest.testOverflow()'
p1294
(dp1295
g859
I11
ssS'ODBCTest.testEmptyDB()'
p1296
(dp1297
g859
I10
ssS'XMLWriterTest.testTrivialDecl()'
p1298
(dp1299
g859
I8
ssS'NumberFormatterTest.testFormat0()'
p1300
(dp1301
g859
I8
ssS'FileChannelTest.testRotateAtTimeDayUTC()'
p1302
(dp1303
g859
I16
ssS'DataTest.testColumnList()'
p1304
(dp1305
g859
I10
ssS'HTTPSServerTest.testChunkedRequest()'
p1306
(dp1307
g859
I10
ssS'ZLibTest.testDeflate2()'
p1308
(dp1309
g859
I14
ssS'PathTest.testParseVMS4()'
p1310
(dp1311
g859
I124
ssS'FileStreamTest.testWrite()'
p1312
(dp1313
g859
I17
ssS'LinearHashTableTest.testPerformanceStr()'
p1314
(dp1315
g859
I57
ssS'PriorityEventTest.testExpire()'
p1316
(dp1317
g859
I17
ssS'DigestStreamTest.testOutputStream2()'
p1318
(dp1319
g859
I7
ssS'NetworkInterfaceTest.testList()'
p1320
(dp1321
g859
I10
ssS'GlobTest.testMatchChars()'
p1322
(dp1323
g859
I9
ssS'PriorityEventTest.testDisabling()'
p1324
(dp1325
g859
I14
ssS'DataTest.testBLOBStreams()'
p1326
(dp1327
g859
I10
ssS'NodeTest.testAppendFragment1()'
p1328
(dp1329
g859
I32
ssS'FIFOEventTest.testAsyncNotify()'
p1330
(dp1331
g859
I11
ssS'ODBCTest.testSelectIntoSingle()'
p1332
(dp1333
g859
I10
ssS'RandomTest.testSequence2()'
p1334
(dp1335
g859
I12
ssS'MessageHeaderTest.testReadInvalid2()'
p1336
(dp1337
g859
I6
ssS'StreamConverterTest.testLatin1toUTF8Out()'
p1338
(dp1339
g859
I11
ssS'TuplesTest.testTuple2()'
p1340
(dp1341
g859
I22
ssS'HashTableTest.testStatistic()'
p1342
(dp1343
g859
I28
ssS'StringTest.testTrimLeft()'
p1344
(dp1345
g859
I6
ssS'ElementTest.testInnerText()'
p1346
(dp1347
g859
I12
ssS'ODBCTest.testComplexTypeList()'
p1348
(dp1349
g859
I10
ssS'NamedEventTest.testNamedEvent()'
p1350
(dp1351
g859
I15
ssS'Base64Test.testEncodeDecode()'
p1352
(dp1353
g859
I28
ssS'DateTimeFormatterTest.testRFC1123()'
p1354
(dp1355
g859
I7
ssS'FileChannelTest.testCompress()'
p1356
(dp1357
g859
I19
ssS'ChannelTest.testFormatting()'
p1358
(dp1359
g859
I7
ssS'HTTPSClientSessionTest.testPostLargeClose()'
p1360
(dp1361
g859
I10
ssS'TextTest.testAppend()'
p1362
(dp1363
g859
I4
ssS'URIStreamOpenerTest.testStreamOpenerURI()'
p1364
(dp1365
g859
I15
ssS'MapConfigurationTest.testClear()'
p1366
(dp1367
g859
I5
ssS'FileTest.testRootDir()'
p1368
(dp1369
g859
I10
ssS'AbstractConfigurationTest.testGetDouble()'
p1370
(dp1371
g859
I8
ssS'DynamicAnyTest.testConversionOperator()'
p1372
(dp1373
g859
I20
ssS'OptionProcessorTest.testDefault()'
p1374
(dp1375
g859
I37
ssS'XMLWriterTest.testEmpty()'
p1376
(dp1377
g859
I11
ssS'HTTPServerTest.testChunkedRequestKeepAlive()'
p1378
(dp1379
g859
I28
ssS'FileTest.testSwap()'
p1380
(dp1381
g859
I5
ssS'ValidatorTest.testIntValidator()'
p1382
(dp1383
g859
I17
ssS'NamedTuplesTest.testNamedTuple20()'
p1384
(dp1385
g859
I73
ssS'TextIteratorTest.testEmptyUTF8()'
p1386
(dp1387
g859
I5
ssS'UUIDGeneratorTest.testRandom()'
p1388
(dp1389
g859
I9
ssS'FTPClientSessionTest.testDownloadEPSV()'
p1390
(dp1391
g859
I26
ssS'EventTest.testRemoveSubtree()'
p1392
(dp1393
g859
I25
ssS'PathTest.testListRoots()'
p1394
(dp1395
g859
I7
ssS'UTF8StringTest.testCompare()'
p1396
(dp1397
g859
I18
ssS'SocketTest.testConnect()'
p1398
(dp1399
g859
I6
ssS'DynamicAnyTest.testUInt16()'
p1400
(dp1401
g859
I73
ssS'NumberParserTest.testParse()'
p1402
(dp1403
g859
I9
ssS'SemaphoreTest.testInitNonZero()'
p1404
(dp1405
g859
I7
ssS'HTTPResponseTest.testCookies()'
p1406
(dp1407
g859
I33
ssS'DocumentTest.testDocumentElement()'
p1408
(dp1409
g859
I8
ssS'DynamicAnyTest.testLimitsSignedUnsigned()'
p1410
(dp1411
g859
I10
ssS'SQLiteTest.testComplexType()'
p1412
(dp1413
g859
I10
ssS'TuplesTest.testMemOverhead()'
p1414
(dp1415
g859
I6
ssS'NumberParserTest.testParseError()'
p1416
(dp1417
g859
I22
ssS'SMTPClientSessionTest.testLoginEHLO()'
p1418
(dp1419
g859
I11
ssS'DNSTest.testResolve()'
p1420
(dp1421
g859
I0
ssS'FileTest.testFileAttributes2()'
p1422
(dp1423
g859
I22
ssS'ClassLoaderTest.testClassLoader2()'
p1424
(dp1425
g859
I50
ssS'XMLWriterTest.testTrivialFragmentPretty()'
p1426
(dp1427
g859
I9
ssS'NameValueCollectionTest.testNameValueCollection()'
p1428
(dp1429
g859
I44
ssS'ODBCTest.testStdVectorBool()'
p1430
(dp1431
g859
I10
ssS'SocketReactorTest.testSocketConnectorTimeout()'
p1432
(dp1433
g859
I8
ssS'TaskManagerTest.testCancel()'
p1434
(dp1435
g859
I32
ssS'SimpleHashTableTest.testResize()'
p1436
(dp1437
g859
I14
ssS'HTTPSStreamFactoryTest.testRedirect()'
p1438
(dp1439
g859
I10
ssS'RandomTest.testDistribution1()'
p1440
(dp1441
g859
I14
ssS'OptionProcessorTest.testRequired()'
p1442
(dp1443
g859
I9
ssS'AbstractConfigurationTest.testHasProperty()'
p1444
(dp1445
g859
I6
ssS'DateTimeParserTest.testRFC850()'
p1446
(dp1447
g859
I33
ssS'ODBCTest.testCombinedLimits()'
p1448
(dp1449
g859
I10
ssS'NamespaceSupportTest.testNamespaceSupport()'
p1450
(dp1451
g859
I112
ssS'FormatTest.testFloatSci()'
p1452
(dp1453
g859
I13
ssS'AttributesImplTest.testNamespaces()'
p1454
(dp1455
g859
I50
ssS'DynamicAnyTest.testArrayOfStructsToString()'
p1456
(dp1457
g859
I17
ssS'HTTPStreamFactoryTest.testProxy()'
p1458
(dp1459
g859
I7
ssS'SQLiteTest.testAsync()'
p1460
(dp1461
g859
I10
ssS'SQLiteTest.testLimitZero()'
p1462
(dp1463
g859
I10
ssS'DocumentTest.testImport()'
p1464
(dp1465
g859
I9
ssS'DateTimeTest.testUsage()'
p1466
(dp1467
g859
I11
ssS'UniqueExpireCacheTest.testClear()'
p1468
(dp1469
g859
I14
ssS'AbstractConfigurationTest.testGetBool()'
p1470
(dp1471
g859
I15
ssS'PathTest.testParseUnix5()'
p1472
(dp1473
g859
I11
ssS'HTTPRequestTest.testInvalid3()'
p1474
(dp1475
g859
I5
ssS'MailMessageTest.testReadQP()'
p1476
(dp1477
g859
I6
ssS'SQLiteTest.testInsertEmptyVector()'
p1478
(dp1479
g859
I10
ssS'MessageHeaderTest.testRead4()'
p1480
(dp1481
g859
I13
ssS'SQLiteTest.testTupleVector5()'
p1482
(dp1483
g859
I10
ssS'SimpleHashTableTest.testUpdate()'
p1484
(dp1485
g859
I12
ssS'DataTest.testColumnVector()'
p1486
(dp1487
g859
I10
ssS'HexBinaryTest.testEncoder()'
p1488
(dp1489
g859
I23
ssS'HTTPResponseTest.testWrite1()'
p1490
(dp1491
g859
I5
ssS'XMLWriterTest.testRawCharacters()'
p1492
(dp1493
g859
I11
ssS'FileStreamTest.testRead()'
p1494
(dp1495
g859
I16
ssS'URITest.testCompare()'
p1496
(dp1497
g859
I17
ssS'ElementTest.testChildElementNS()'
p1498
(dp1499
g859
I16
ssS'DateTimeTest.testTimestamp()'
p1500
(dp1501
g859
I24
ssS'StreamCopierTest.testCopyToString()'
p1502
(dp1503
g859
I9
ssS'SMTPClientSessionTest.testLoginFailed()'
p1504
(dp1505
g859
I7
ssS'LRUCacheTest.testDuplicateAdd()'
p1506
(dp1507
g859
I7
ssS'MD4EngineTest.testMD4()'
p1508
(dp1509
g859
I16
ssS'FileChannelTest.testRotateAtTimeHourLocal()'
p1510
(dp1511
g859
I16
ssS'HTTPServerTest.testIdentityRequestKeepAlive()'
p1512
(dp1513
g859
I28
ssS'NodeTest.testAppendFragment3()'
p1514
(dp1515
g859
I68
ssS'DateTimeFormatterTest.testHTTP()'
p1516
(dp1517
g859
I7
ssS'HTTPSClientSessionTest.testPostSmallIdentity()'
p1518
(dp1519
g859
I10
ssS'SQLiteTest.testMultiSetSimple()'
p1520
(dp1521
g859
I10
ssS'FileTest.testCompare()'
p1522
(dp1523
g859
I18
ssS'IPAddressTest.testClassification6()'
p1524
(dp1525
g859
I0
ssS'HTTPSClientSessionTest.testPostLargeChunkedKeepAlive()'
p1526
(dp1527
g859
I10
ssS'TextEncodingTest.testTextEncoding()'
p1528
(dp1529
g859
I9
ssS'DateTimeFormatterTest.testTimespan()'
p1530
(dp1531
g859
I18
ssS'XMLWriterTest.testNamespaces()'
p1532
(dp1533
g859
I9
ssS'TimespanTest.testComparisons()'
p1534
(dp1535
g859
I23
ssS'GlobTest.testMatchQM()'
p1536
(dp1537
g859
I34
ssS'ExpireLRUCacheTest.testAccessExpireN()'
p1538
(dp1539
g859
I27
ssS'UniqueExpireLRUCacheTest.testExpire0()'
p1540
(dp1541
g859
I3
ssS'DynamicAnyTest.testUInt8()'
p1542
(dp1543
g859
I73
ssS'HTTPRequestTest.testInvalid1()'
p1544
(dp1545
g859
I5
ssS'SAXParserTest.testSimple2()'
p1546
(dp1547
g859
I3
ssS'DateTimeTest.testArithmetics()'
p1548
(dp1549
g859
I22
ssS'CoreTest.testPlatform()'
p1550
(dp1551
g859
I2
ssS'ConfigurationViewTest.testView()'
p1552
(dp1553
g859
I46
ssS'PathTest.testForDirectory()'
p1554
(dp1555
g859
I4
ssS'HTTPRequestTest.testWrite2()'
p1556
(dp1557
g859
I8
ssS'NetworkInterfaceTest.testForName()'
p1558
(dp1559
g859
I6
ssS'HTMLFormTest.testWriteMultipart()'
p1560
(dp1561
g859
I11
ssS'SQLiteTest.testDateTime()'
p1562
(dp1563
g859
I10
ssS'HTMLFormTest.testSubmit1()'
p1564
(dp1565
g859
I8
ssS'AnyTest.testComplexType()'
p1566
(dp1567
g859
I11
ssS'MultipartWriterTest.testWriteTwoParts()'
p1568
(dp1569
g859
I12
ssS'LoggingConfiguratorTest.testConfigurator()'
p1570
(dp1571
g859
I23
ssS'SQLiteTest.testLimitOnce()'
p1572
(dp1573
g859
I10
ssS'ODBCTest.testComplexTypeDeque()'
p1574
(dp1575
g859
I10
ssS'PathTest.testParseWindows3()'
p1576
(dp1577
g859
I125
ssS'MultipartReaderTest.testRobustness()'
p1578
(dp1579
g859
I18
ssS'HTTPClientSessionTest.testPostSmallIdentity()'
p1580
(dp1581
g859
I12
ssS'FTPStreamFactoryTest.testMissingPasswordProvider()'
p1582
(dp1583
g859
I13
ssS'EventTest.testInsert()'
p1584
(dp1585
g859
I25
ssS'DynamicAnyTest.testLimitsSigned()'
p1586
(dp1587
g859
I10
ssS'NamedTuplesTest.testNamedTuple12()'
p1588
(dp1589
g859
I51
ssS'CountingStreamTest.testInput()'
p1590
(dp1591
g859
I22
ssS'LocalDateTimeTest.testRelational2()'
p1592
(dp1593
g859
I15
ssS'EventTest.testSuspended()'
p1594
(dp1595
g859
I17
ssS'FTPClientSessionTest.testUpload()'
p1596
(dp1597
g859
I24
ssS'ExpireLRUCacheTest.testCacheSize2()'
p1598
(dp1599
g859
I26
ssS'ThreadTest.testCurrent()'
p1600
(dp1601
g859
I1
ssS'EventTest.testRemove()'
p1602
(dp1603
g859
I25
ssS'BasicEventTest.testDuplicateUnregister()'
p1604
(dp1605
g859
I14
ssS'FileStreamTest.testOpenModeIn()'
p1606
(dp1607
g859
I8
ssS'LinearHashTableTest.testErase()'
p1608
(dp1609
g859
I35
ssS'TuplesTest.testTuple13()'
p1610
(dp1611
g859
I9
ssS'HTTPSStreamFactoryTest.testProxy()'
p1612
(dp1613
g859
I10
ssS'LocalDateTimeTest.testCalcs()'
p1614
(dp1615
g859
I91
ssS'LoggingRegistryTest.testReregister()'
p1616
(dp1617
g859
I22
ssS'ExpireCacheTest.testAccessExpireN()'
p1618
(dp1619
g859
I27
ssS'FileTest.testCopyDirectory()'
p1620
(dp1621
g859
I44
ssS'StreamTokenizerTest.testTokenizer3()'
p1622
(dp1623
g859
I14
ssS'StreamTokenizerTest.testTokenizer1()'
p1624
(dp1625
g859
I8
ssS'IPAddressTest.testRelationals()'
p1626
(dp1627
g859
I21
ssS'EventTest.testAddRemoveInEvent()'
p1628
(dp1629
g859
I25
ssS'SQLiteTest.testMultiMapComplex()'
p1630
(dp1631
g859
I10
ssS'XMLWriterTest.testQNamespaces()'
p1632
(dp1633
g859
I9
ssS'SAXParserTest.testDTD()'
p1634
(dp1635
g859
I3
ssS'ODBCTest.testComplexType()'
p1636
(dp1637
g859
I10
ssS'ODBCTest.testLimitOnce()'
p1638
(dp1639
g859
I10
ssS'NamedTuplesTest.testNamedTuple5()'
p1640
(dp1641
g859
I33
ssS'BasicEventTest.testSingleDelegate()'
p1642
(dp1643
g859
I25
ssS'NodeTest.testInsert()'
p1644
(dp1645
g859
I42
ssS'OptionSetTest.testOptionSet()'
p1646
(dp1647
g859
I39
ssS'PathTest.testParseVMS2()'
p1648
(dp1649
g859
I118
ssS'DocumentTest.testElementByIdNS()'
p1650
(dp1651
g859
I29
ssS'StreamConverterTest.testUTF8toASCIIIn()'
p1652
(dp1653
g859
I16
ssS'URIStreamOpenerTest.testStreamOpenerFile()'
p1654
(dp1655
g859
I15
ssS'NameTest.testCompare()'
p1656
(dp1657
g859
I17
ssS'UniqueExpireCacheTest.testAccessClear()'
p1658
(dp1659
g859
I14
ssS'ThreadTest.testThreads()'
p1660
(dp1661
g859
I49
ssS'XMLWriterTest.testExplicitNamespaces()'
p1662
(dp1663
g859
I17
ssS'SQLiteTest.testTupleVector7()'
p1664
(dp1665
g859
I10
ssS'BasicEventTest.testExpireReRegister()'
p1666
(dp1667
g859
I15
ssS'SQLiteTest.testEmptyDB()'
p1668
(dp1669
g859
I10
ssS'ODBCTest.testMultipleResults()'
p1670
(dp1671
g859
I10
ssS'LinearHashTableTest.testInsert()'
p1672
(dp1673
g859
I26
ssS'SQLiteTest.testNullCharPointer()'
p1674
(dp1675
g859
I10
ssS'FPETest.testClassify()'
p1676
(dp1677
g859
I16
ssS'ConditionTest.testSignal()'
p1678
(dp1679
g859
I18
ssS'PathTest.testParseUnix3()'
p1680
(dp1681
g859
I81
ssS'MultipartReaderTest.testBadBoundary()'
p1682
(dp1683
g859
I6
ssS'AttributesImplTest.testCopy()'
p1684
(dp1685
g859
I19
ssS'TuplesTest.testTuple20()'
p1686
(dp1687
g859
I9
ssS'LRUCacheTest.testCacheSize1()'
p1688
(dp1689
g859
I16
ssS'SQLiteTest.testTuple5()'
p1690
(dp1691
g859
I10
ssS'PathTest.testParseVMS3()'
p1692
(dp1693
g859
I66
ssS'TuplesTest.testTuple6()'
p1694
(dp1695
g859
I8
ssS'DateTimeTest.testIsValid()'
p1696
(dp1697
g859
I11
ssS'HTTPServerTest.testMaxKeepAlive()'
p1698
(dp1699
g859
I43
ssS'NodeTest.testRemove()'
p1700
(dp1701
g859
I38
ssS'OptionTest.testProcess2()'
p1702
(dp1703
g859
I27
ssS'AbstractConfigurationTest.testSetString()'
p1704
(dp1705
g859
I5
ssS'ExpireCacheTest.testExpireWithHas()'
p1706
(dp1707
g859
I5
ssS'IPAddressTest.testStringConv()'
p1708
(dp1709
g859
I12
ssS'ODBCTest.testDate()'
p1710
(dp1711
g859
I10
ssS'URIStreamOpenerTest.testStreamOpenerURIResolve()'
p1712
(dp1713
g859
I18
ssS'MessageHeaderTest.testRead2()'
p1714
(dp1715
g859
I8
ssS'SAXParserTest.testExternalParsed()'
p1716
(dp1717
g859
I6
ssS'DynamicAnyTest.testArrayToString()'
p1718
(dp1719
g859
I9
ssS'UUIDTest.testBuffer()'
p1720
(dp1721
g859
I6
ssS'FileTest.testDirectory()'
p1722
(dp1723
g859
I32
ssS'HTTPSServerTest.testIdentityRequest()'
p1724
(dp1725
g859
I10
ssS'MemoryPoolTest.testMemoryPool()'
p1726
(dp1727
g859
I24
ssS'HashMapTest.testIterator()'
p1728
(dp1729
g859
I14
ssS'TextIteratorTest.testSwap()'
p1730
(dp1731
g859
I10
ssS'MediaTypeTest.testMatch()'
p1732
(dp1733
g859
I8
ssS'TextConverterTest.testErrors()'
p1734
(dp1735
g859
I8
ssS'LoggingConfiguratorTest.testBadConfiguration3()'
p1736
(dp1737
g859
I6
ssS'SHA1EngineTest.testSHA1()'
p1738
(dp1739
g859
I10
ssS'HTTPServerTest.testPutIdentityRequest()'
p1740
(dp1741
g859
I17
ssS'DynamicAnyTest.testULong()'
p1742
(dp1743
g859
I73
ssS'StreamConverterTest.testIdentityASCIIOut()'
p1744
(dp1745
g859
I16
ssS'TuplesTest.testTuple18()'
p1746
(dp1747
g859
I9
ssS'URITest.testSwap()'
p1748
(dp1749
g859
I5
ssS'DigestStreamTest.testOutputStream1()'
p1750
(dp1751
g859
I9
ssS'StreamTokenizerTest.testTokenizer6()'
p1752
(dp1753
g859
I17
ssS'DynamicAnyTest.testUInt32()'
p1754
(dp1755
g859
I73
ssS'HTTPClientSessionTest.testPostLargeChunked()'
p1756
(dp1757
g859
I13
ssS'SocketTest.testBufferSize()'
p1758
(dp1759
g859
I16
ssS'DNSTest.testHostByAddress()'
p1760
(dp1761
g859
I9
ssS'IniFileConfigurationTest.testLoad()'
p1762
(dp1763
g859
I25
ssS'NullStreamTest.testInput()'
p1764
(dp1765
g859
I6
ssS'LRUCacheTest.testClear()'
p1766
(dp1767
g859
I18
ssS'ExpireLRUCacheTest.testCacheSize0()'
p1768
(dp1769
g859
I2
ssS'HTTPSServerTest.testClosedRequestKeepAlive()'
p1770
(dp1771
g859
I10
ssS'RegularExpressionTest.testSubst3()'
p1772
(dp1773
g859
I4
ssS'HTTPClientSessionTest.testProxy()'
p1774
(dp1775
g859
I12
ssS'MailMessageTest.testWriteQP()'
p1776
(dp1777
g859
I19
ssS'ZLibTest.testGzip1()'
p1778
(dp1779
g859
I11
ssS'DataTest.testExternalBindingAndExtraction()'
p1780
(dp1781
g859
I10
ssS'StreamConverterTest.testErrorsIn()'
p1782
(dp1783
g859
I9
ssS'MessageHeaderTest.testSplitElements()'
p1784
(dp1785
g859
I60
ssS'SQLiteTest.testLimit()'
p1786
(dp1787
g859
I10
ssS'MultipartWriterTest.testWriteOnePart()'
p1788
(dp1789
g859
I10
ssS'PriorityEventTest.testOverwriteDelegate()'
p1790
(dp1791
g859
I10
ssS'StreamCopierTest.testUnbufferedCopy()'
p1792
(dp1793
g859
I9
ssS'HTTPSClientSessionTest.testPostLargeChunked()'
p1794
(dp1795
g859
I10
ssS'XMLWriterTest.testEmptyData()'
p1796
(dp1797
g859
I7
ssS'LoggingFactoryTest.testCustom()'
p1798
(dp1799
g859
I7
ssS'LocalDateTimeTest.testArithmetics1()'
p1800
(dp1801
g859
I10
ssS'DateTimeParserTest.testASCTIME()'
p1802
(dp1803
g859
I9
ssS'DataTest.testRowFormat()'
p1804
(dp1805
g859
I10
ssS'HashSetTest.testInsert()'
p1806
(dp1807
g859
I26
ssS'MessageHeaderTest.testWrite()'
p1808
(dp1809
g859
I8
ssS'DateTimeTest.testConversions()'
p1810
(dp1811
g859
I20
ssS'UniqueExpireLRUCacheTest.testCacheSize0()'
p1812
(dp1813
g859
I2
ssS'CountingStreamTest.testOutput()'
p1814
(dp1815
g859
I19
ssS'DateTimeParserTest.testHTTP()'
p1816
(dp1817
g859
I25
ssS'SQLiteTest.testSingleSelect()'
p1818
(dp1819
g859
I10
ssS'MediaTypeTest.testToString()'
p1820
(dp1821
g859
I8
ssS'LineEndingConverterTest.testOutputUnixToDos()'
p1822
(dp1823
g859
I5
ssS'PathTest.testResolve()'
p1824
(dp1825
g859
I12
ssS'FormatTest.testChar()'
p1826
(dp1827
g859
I9
ssS'FTPClientSessionTest.testLoginFailed1()'
p1828
(dp1829
g859
I7
ssS'DateTimeFormatterTest.testISO8601()'
p1830
(dp1831
g859
I7
ssS'FileTest.testSize()'
p1832
(dp1833
g859
I7
ssS'ODBCTest.testStoredFunctionAny()'
p1834
(dp1835
g859
I10
ssS'PriorityEventTest.testReturnParams()'
p1836
(dp1837
g859
I5
ssS'SQLiteTest.testTuple3()'
p1838
(dp1839
g859
I10
ssS'ODBCTest.testSelectIntoSingleFail()'
p1840
(dp1841
g859
I10
ssS'ODBCTest.testStoredProcedureDynamicAny()'
p1842
(dp1843
g859
I10
ssS'SQLiteTest.testSelectIntoSingle()'
p1844
(dp1845
g859
I10
ssS'LayeredConfigurationTest.testThreeLayers()'
p1846
(dp1847
g859
I19
ssS'HTTPClientSessionTest.testPostSmallChunked()'
p1848
(dp1849
g859
I13
ssS'FTPClientSessionTest.testDownloadPORT()'
p1850
(dp1851
g859
I41
ssS'DateTimeParserTest.testParseDayOfWeek()'
p1852
(dp1853
g859
I32
ssS'AutoPtrTest.testAutoPtr()'
p1854
(dp1855
g859
I15
ssS'SAXParserTest.testPI()'
p1856
(dp1857
g859
I3
ssS'RegularExpressionTest.testSplit1()'
p1858
(dp1859
g859
I13
ssS'ActiveMethodTest.testWaitInterval()'
p1860
(dp1861
g859
I10
ssS'ExpireLRUCacheTest.testDuplicateAdd()'
p1862
(dp1863
g859
I7
ssS'FileChannelTest.testRotateBySize()'
p1864
(dp1865
g859
I18
ssS'CoreTest.testEnvironment()'
p1866
(dp1867
g859
I10
ssS'ExpireCacheTest.testExpireN()'
p1868
(dp1869
g859
I40
ssS'HTTPCookieTest.testCookie()'
p1870
(dp1871
g859
I17
ssS'PriorityEventTest.testNoDelegate()'
p1872
(dp1873
g859
I43
ssS'ActiveDispatcherTest.testTryWait()'
p1874
(dp1875
g859
I9
ssS'HashTableTest.testResize()'
p1876
(dp1877
g859
I14
ssS'PathTest.testParseUnix1()'
p1878
(dp1879
g859
I55
ssS'TaskTest.testCancel1()'
p1880
(dp1881
g859
I14
ssS'NamedTuplesTest.testNamedTuple16()'
p1882
(dp1883
g859
I61
ssS'SyslogTest.testOldBSD()'
p1884
(dp1885
g859
I21
ssS'DynamicAnyTest.testJSONDeserializeArray()'
p1886
(dp1887
g859
I31
ssS'StringTokenizerTest.testStringTokenizer()'
p1888
(dp1889
g859
I179
ssS'NamedTuplesTest.testNamedTuple10()'
p1890
(dp1891
g859
I46
ssS'TextTest.testReplace()'
p1892
(dp1893
g859
I14
ssS'HTTPRequestTest.testWrite3()'
p1894
(dp1895
g859
I10
ssS'UniqueExpireCacheTest.testExpire0()'
p1896
(dp1897
g859
I3
ssS'MailStreamTest.testMailInputStream()'
p1898
(dp1899
g859
I6
ssS'TuplesTest.testTuple10()'
p1900
(dp1901
g859
I9
ssS'FileTest.testFileAttributes1()'
p1902
(dp1903
g859
I33
ssS'HTTPSStreamFactoryTest.testError()'
p1904
(dp1905
g859
I10
ssS'StringTest.testTrimRightInPlace()'
p1906
(dp1907
g859
I6
ssS'DynamicAnyTest.testInt32()'
p1908
(dp1909
g859
I73
ssS'HTTPClientSessionTest.testPostSmallClose()'
p1910
(dp1911
g859
I12
ssS'FIFOEventTest.testExpireReRegister()'
p1912
(dp1913
g859
I15
ssS'ODBCTest.testInternalExtraction()'
p1914
(dp1915
g859
I10
ssS'ElementTest.testAttributesNS()'
p1916
(dp1917
g859
I85
ssS'ClassLoaderTest.testClassLoader1()'
p1918
(dp1919
g859
I13
ssS'TuplesTest.testTuple19()'
p1920
(dp1921
g859
I9
ssS'FIFOEventTest.testDuplicateRegister()'
p1922
(dp1923
g859
I9
ssS'LocalDateTimeTest.testArithmetics2()'
p1924
(dp1925
g859
I10
ssS'UniqueExpireLRUCacheTest.testExpireN()'
p1926
(dp1927
g859
I38
ssS'HashTableTest.testInsert()'
p1928
(dp1929
g859
I17
ssS'StreamConverterTest.testIdentityUTF8Out()'
p1930
(dp1931
g859
I23
ssS'TextTest.testDelete()'
p1932
(dp1933
g859
I10
ssS'RegularExpressionTest.testSubst4()'
p1934
(dp1935
g859
I4
ssS'AsyncIOChannelTest.testWrite()'
p1936
(dp1937
g859
I8
ssS'RegularExpressionTest.testMatch6()'
p1938
(dp1939
g859
I4
ssS'FileChannelTest.testPurgeAge()'
p1940
(dp1941
g859
I26
ssS'HTTPServerTest.testClosedRequest()'
p1942
(dp1943
g859
I17
ssS'ODBCTest.testLimit()'
p1944
(dp1945
g859
I10
ssS'DateTimeParserTest.testSORTABLE()'
p1946
(dp1947
g859
I17
ssS'NamedTuplesTest.testNamedTuple3()'
p1948
(dp1949
g859
I29
ssS'PriorityEventTest.testDuplicateRegister()'
p1950
(dp1951
g859
I16
ssS'TaskManagerTest.testMultiTasks()'
p1952
(dp1953
g859
I10
ssS'HTTPSClientSessionTest.testConnectNB()'
p1954
(dp1955
g859
I10
ssS'ChannelTest.testSplitter()'
p1956
(dp1957
g859
I7
ssS'FilesystemConfigurationTest.testFilesystemConfiguration()'
p1958
(dp1959
g859
I33
ssS'SAXParserTest.testNotation()'
p1960
(dp1961
g859
I3
ssS'URITest.testNormalize()'
p1962
(dp1963
g859
I46
ssS'AttributesImplTest.testNoNamespaces()'
p1964
(dp1965
g859
I39
ssS'PathTest.testExpand()'
p1966
(dp1967
g859
I14
ssS'SharedPtrTest.testImplicitCast()'
p1968
(dp1969
g859
I12
ssS'NodeTest.testReplaceFragment1()'
p1970
(dp1971
g859
I73
ssS'SQLiteTest.testSimpleAccessVector()'
p1972
(dp1973
g859
I10
ssS'ExpireLRUCacheTest.testExpire0()'
p1974
(dp1975
g859
I2
ssS'NotificationCenterTest.test4()'
p1976
(dp1977
g859
I17
ssS'NotificationQueueTest.testQueueDequeue()'
p1978
(dp1979
g859
I31
ssS'MessageHeaderTest.testReadFolding4()'
p1980
(dp1981
g859
I7
ssS'XMLWriterTest.testWellformedNamespace()'
p1982
(dp1983
g859
I7
ssS'TextConverterTest.testIdentityASCII()'
p1984
(dp1985
g859
I29
ssS'SocketReactorTest.testSocketConnectorFail()'
p1986
(dp1987
g859
I8
ssS'NamedMutexTest.testTryLock()'
p1988
(dp1989
g859
I12
ssS'TaskManagerTest.testFinish()'
p1990
(dp1991
g859
I33
ssS'ExpireLRUCacheTest.testCacheSizeN()'
p1992
(dp1993
g859
I36
ssS'SQLiteTest.testPrepare()'
p1994
(dp1995
g859
I10
ssS'TuplesTest.testTuple3()'
p1996
(dp1997
g859
I24
ssS'HTMLFormTest.testWriteUrl()'
p1998
(dp1999
g859
I10
ssS'FTPClientSessionTest.testLoginFailed2()'
p2000
(dp2001
g859
I9
ssS'HTTPSStreamFactoryTest.testNoRedirect()'
p2002
(dp2003
g859
I10
ssS'SQLiteTest.testTupleVector9()'
p2004
(dp2005
g859
I10
ssS'LineEndingConverterTest.testInputRemove()'
p2006
(dp2007
g859
I6
ssS'HTTPStreamFactoryTest.testRedirect()'
p2008
(dp2009
g859
I9
ssS'HMACEngineTest.testHMAC()'
p2010
(dp2011
g859
I18
ssS'LoggingRegistryTest.testUnregister()'
p2012
(dp2013
g859
I16
ssS'MultipartWriterTest.testBoundary()'
p2014
(dp2015
g859
I5
ssS'FPETest.testRound()'
p2016
(dp2017
g859
I6
ssS'DynamicAnyTest.testIsStruct()'
p2018
(dp2019
g859
I51
ssS'PathTest.testParseUnix4()'
p2020
(dp2021
g859
I85
ssS'DynamicAnyTest.testDynamicStruct()'
p2022
(dp2023
g859
I9
ssS'HexBinaryTest.testEncodeDecode()'
p2024
(dp2025
g859
I28
ssS'MultipartReaderTest.testReadEmptyLines()'
p2026
(dp2027
g859
I27
ssS'NodeIteratorTest.testFilter()'
p2028
(dp2029
g859
I17
ssS'StreamConverterTest.testIdentityASCIIIn()'
p2030
(dp2031
g859
I19
ssS'URITest.testToString()'
p2032
(dp2033
g859
I54
ssS'ODBCTest.testRange()'
p2034
(dp2035
g859
I10
ssS'DateTimeParserTest.testParseMonth()'
p2036
(dp2037
g859
I32
ssS'OptionTest.testMatches2()'
p2038
(dp2039
g859
I14
ssS'ODBCTest.testInsertEmptyDeque()'
p2040
(dp2041
g859
I10
ssS'MailStreamTest.testMailOutputStream()'
p2042
(dp2043
g859
I7
ssS'URITest.testResolve()'
p2044
(dp2045
g859
I62
ssS'URITest.testParse()'
p2046
(dp2047
g859
I242
ssS'HTTPServerTest.testClosedRequestKeepAlive()'
p2048
(dp2049
g859
I18
ssS'ODBCTest.testSetComplex()'
p2050
(dp2051
g859
I10
ssS'NotificationQueueTest.testWaitDequeue()'
p2052
(dp2053
g859
I19
ssS'RandomStreamTest.testStream()'
p2054
(dp2055
g859
I25
ssS'MultipartReaderTest.testGuessBoundary()'
p2056
(dp2057
g859
I19
ssS'FormatTest.testBool()'
p2058
(dp2059
g859
I20
ssS'FormatTest.testMultiple()'
p2060
(dp2061
g859
I10
ssS'SocketTest.testSelect()'
p2062
(dp2063
g859
I25
ssS'FileStreamTest.testSeek()'
p2064
(dp2065
g859
I30
ssS'NDCTest.testNDC()'
p2066
(dp2067
g859
I13
ssS'NamedTuplesTest.testNamedTuple8()'
p2068
(dp2069
g859
I40
ssS'StringTest.testTrimRight()'
p2070
(dp2071
g859
I6
ssS'FTPClientSessionTest.testDownloadEPRT()'
p2072
(dp2073
g859
I34
ssS'DynamicAnyTest.testUInt64()'
p2074
(dp2075
g859
I73
ssS'TaskManagerTest.testError()'
p2076
(dp2077
g859
I31
ssS'SQLiteTest.testLowerLimitOk()'
p2078
(dp2079
g859
I10
ssS'LRUCacheTest.testCacheSizeN()'
p2080
(dp2081
g859
I36
ssS'POP3ClientSessionTest.testLoginFail()'
p2082
(dp2083
g859
I9
ssS'AttributesImplTest.testAccessors()'
p2084
(dp2085
g859
I33
ssS'HTTPResponseTest.testInvalid1()'
p2086
(dp2087
g859
I5
ssS'SimpleHashTableTest.testInsert()'
p2088
(dp2089
g859
I17
ssS'HTTPResponseTest.testInvalid3()'
p2090
(dp2091
g859
I7
ssS'TextIteratorTest.testOneUTF8()'
p2092
(dp2093
g859
I49
ssS'SQLiteTest.testSetComplex()'
p2094
(dp2095
g859
I10
ssS'RegularExpressionTest.testSplit2()'
p2096
(dp2097
g859
I12
ssS'LineEndingConverterTest.testOutputRemove()'
p2098
(dp2099
g859
I5
ssS'RegularExpressionTest.testIndex()'
p2100
(dp2101
g859
I4
ssS'DateTimeTest.testSetYearDay()'
p2102
(dp2103
g859
I29
ssS'HashMapTest.testInsert()'
p2104
(dp2105
g859
I31
ssS'DynamicAnyTest.testLimitsFloatToInt()'
p2106
(dp2107
g859
I10
ssS'NamedTuplesTest.testNamedTuple9()'
p2108
(dp2109
g859
I43
ssS'SQLiteTest.testTuple10()'
p2110
(dp2111
g859
I10
ssS'HTTPServerTest.testNotImpl()'
p2112
(dp2113
g859
I13
ssS'SQLiteTest.testBLOB()'
p2114
(dp2115
g859
I10
ssS'SQLiteTest.testSelectIntoSingleStep()'
p2116
(dp2117
g859
I10
ssS'ODBCTest.testInsertSingleBulk()'
p2118
(dp2119
g859
I10
ssS'SAXParserTest.testAttributes()'
p2120
(dp2121
g859
I3
ssS'HTTPCredentialsTest.testCredentials()'
p2122
(dp2123
g859
I13
ssS'SocketTest.testAssign()'
p2124
(dp2125
g859
I17
ssS'SAXParserTest.testUndeclaredNoNamespace()'
p2126
(dp2127
g859
I4
ssS'DataTest.testBLOB()'
p2128
(dp2129
g859
I10
ssS'ODBCTest.testTupleVector()'
p2130
(dp2131
g859
I10
ssS'SQLiteTest.testSQLLogger()'
p2132
(dp2133
g859
I10
ssS'RegularExpressionTest.testSubst1()'
p2134
(dp2135
g859
I20
ssS'RWLockTest.testTryLock()'
p2136
(dp2137
g859
I28
ssS'MessageHeaderTest.testRead3()'
p2138
(dp2139
g859
I6
ssS'TuplesTest.testTuple5()'
p2140
(dp2141
g859
I28
ssS'NodeTest.testReplaceFragment3()'
p2142
(dp2143
g859
I129
ssS'FIFOEventTest.testReturnParams()'
p2144
(dp2145
g859
I5
ssS'SAXParserTest.testUndeclaredNamespaceNoPrefixes()'
p2146
(dp2147
g859
I5
ssS'ODBCTest.testSelectIntoSingleStep()'
p2148
(dp2149
g859
I10
ssS'RandomTest.testSequence1()'
p2150
(dp2151
g859
I8
ssS'NetworkInterfaceTest.testForIndex()'
p2152
(dp2153
g859
I6
ssS'PathTest.testRobustness()'
p2154
(dp2155
g859
I14
ssS'DynamicAnyTest.testJSONDeserializeString()'
p2156
(dp2157
g859
I9
ssS'DateTimeTest.testAMPM()'
p2158
(dp2159
g859
I12
ssS'DigestStreamTest.testInputStream()'
p2160
(dp2161
g859
I7
ssS'LayeredConfigurationTest.testEmpty()'
p2162
(dp2163
g859
I9
ssS'QuotedPrintableTest.testEncode()'
p2164
(dp2165
g859
I6
ssS'TextTest.testSplit()'
p2166
(dp2167
g859
I7
ssS'UniqueExpireLRUCacheTest.testAccessClear()'
p2168
(dp2169
g859
I14
ssS'ExpireCacheTest.testExpire0()'
p2170
(dp2171
g859
I2
ssS'POP3ClientSessionTest.testList()'
p2172
(dp2173
g859
I21
ssS'MD2EngineTest.testMD2()'
p2174
(dp2175
g859
I16
ssS'FTPClientSessionTest.testCommands()'
p2176
(dp2177
g859
I74
ssS'POP3ClientSessionTest.testMessageCount()'
p2178
(dp2179
g859
I14
ssS'NameTest.testSwap()'
p2180
(dp2181
g859
I9
ssS'SQLiteTest.testInternalExtraction()'
p2182
(dp2183
g859
I10
ssS'XMLWriterTest.testPI()'
p2184
(dp2185
g859
I12
ssS'HTTPStreamFactoryTest.testError()'
p2186
(dp2187
g859
I7
ssS'LinearHashTableTest.testIterator()'
p2188
(dp2189
g859
I13
ssS'Base64Test.testEncoder()'
p2190
(dp2191
g859
I15
ssS'UUIDTest.testParse()'
p2192
(dp2193
g859
I4
ssS'ProcessTest.testLaunchRedirectOut()'
p2194
(dp2195
g859
I19
ssS'SQLiteTest.testMultipleResults()'
p2196
(dp2197
g859
I10
ssS'StreamConverterTest.testUTF8toASCIIOut()'
p2198
(dp2199
g859
I14
ssS'PathTest.testTryParse()'
p2200
(dp2201
g859
I11
ssS'LoggingConfiguratorTest.testBadConfiguration2()'
p2202
(dp2203
g859
I6
ssS'FileStreamTest.testOpenModeAte()'
p2204
(dp2205
g859
I18
ssS'UniqueExpireCacheTest.testAccessExpire0()'
p2206
(dp2207
g859
I3
ssS'TextTest.testLength()'
p2208
(dp2209
g859
I5
ssS'ODBCTest.testStoredFunctionDynamicAny()'
p2210
(dp2211
g859
I10
ssS'NamedTuplesTest.testNamedTuple1()'
p2212
(dp2213
g859
I23
ssS'TimezoneTest.testTimezone()'
p2214
(dp2215
g859
I8
ssS'NodeTest.testAppendFragment2()'
p2216
(dp2217
g859
I50
ssS'SQLiteTest.testLimitPrepare()'
p2218
(dp2219
g859
I10
ssS'HTTPSServerTest.testAuth()'
p2220
(dp2221
g859
I10
ssS'ClassLoaderTest.testClassLoader3()'
p2222
(dp2223
g859
I15
ssS'ODBCTest.testMultiMapComplex()'
p2224
(dp2225
g859
I10
ssS'ODBCTest.testAffectedRows()'
p2226
(dp2227
g859
I10
ssS'ChannelTest.testConsole()'
p2228
(dp2229
g859
I5
ssS'TuplesTest.testTupleOrder()'
p2230
(dp2231
g859
I60
ssS'NamePoolTest.testNamePool()'
p2232
(dp2233
g859
I12
ssS'DynamicAnyTest.testArrayIdxOperator()'
p2234
(dp2235
g859
I54
ssS'SQLiteTest.testInsertSingleBulkVec()'
p2236
(dp2237
g859
I10
ssS'HTMLFormTest.testSubmit2()'
p2238
(dp2239
g859
I8
ssS'ConfigurationMapperTest.testMapper1()'
p2240
(dp2241
g859
I18
ssS'DynamicAnyTest.testComparisonOperators()'
p2242
(dp2243
g859
I104
ssS'ODBCTest.testMultiSetSimple()'
p2244
(dp2245
g859
I10
ssS'SocketTest.testAddress()'
p2246
(dp2247
g859
I8
ssS'HTTPServerTest.testRedirect()'
p2248
(dp2249
g859
I14
ssS'RegularExpressionTest.testMatch4()'
p2250
(dp2251
g859
I18
ssS'DynamicAnyTest.testArithmeticOperators()'
p2252
(dp2253
g859
I95
ssS'XMLWriterTest.testData()'
p2254
(dp2255
g859
I7
ssS'StringTest.testReplaceInPlace()'
p2256
(dp2257
g859
I2
ssS'FTPStreamFactoryTest.testList()'
p2258
(dp2259
g859
I27
ssS'GlobTest.testMisc()'
p2260
(dp2261
g859
I23
ssS'StreamConverterTest.testLatin1toUTF8In()'
p2262
(dp2263
g859
I12
ssS'DateTimeFormatterTest.testSORTABLE()'
p2264
(dp2265
g859
I3
ssS'TuplesTest.testTuple4()'
p2266
(dp2267
g859
I26
ssS'EventTest.testAttributes()'
p2268
(dp2269
g859
I16
ssS'MulticastSocketTest.testMulticast()'
p2270
(dp2271
g859
I9
ssS'AsyncIOChannelTest.testSeek()'
p2272
(dp2273
g859
I8
ssS'NamedTuplesTest.testNamedTuple2()'
p2274
(dp2275
g859
I26
ssS'StreamTokenizerTest.testTokenizer2()'
p2276
(dp2277
g859
I11
ssS'TuplesTest.testTuple14()'
p2278
(dp2279
g859
I9
ssS'GlobTest.testGlob()'
p2280
(dp2281
g859
I54
ssS'TuplesTest.testTuple12()'
p2282
(dp2283
g859
I9
ssS'ParserWriterTest.testParseWriteXHTML()'
p2284
(dp2285
g859
I8
ssS'HelpFormatterTest.testHelpFormatter()'
p2286
(dp2287
g859
I19
ssS'FTPStreamFactoryTest.testPasswordProvider()'
p2288
(dp2289
g859
I28
ssS'HTMLFormTest.testReadMultipart()'
p2290
(dp2291
g859
I13
ssS'ODBCTest.testMultiSetComplex()'
p2292
(dp2293
g859
I10
ssS'BinaryReaderWriterTest.testNative()'
p2294
(dp2295
g859
I5
ssS'SQLiteTest.testCombinedLimits()'
p2296
(dp2297
g859
I10
ssS'SharedPtrTest.testExplicitCast()'
p2298
(dp2299
g859
I8
ssS'HashTableTest.testSize()'
p2300
(dp2301
g859
I17
ssS'SharedLibraryTest.testSharedLibrary1()'
p2302
(dp2303
g859
I19
ssS'DatagramSocketTest.testSendToReceiveFrom()'
p2304
(dp2305
g859
I12
ssS'ActiveMethodTest.testFailure()'
p2306
(dp2307
g859
I7
ssS'SQLiteTest.testInsertVector()'
p2308
(dp2309
g859
I10
ssS'ODBCTest.testSimpleAccessDeque()'
p2310
(dp2311
g859
I10
ssS'SAXParserTest.testInternalEntity()'
p2312
(dp2313
g859
I3
ssS'DateTimeParserTest.testRFC1123()'
p2314
(dp2315
g859
I33
ssS'SharedLibraryTest.testSharedLibrary2()'
p2316
(dp2317
g859
I9
ssS'SocketTest.testPoll()'
p2318
(dp2319
g859
I20
ssS'HTTPSClientSessionTest.testKeepAlive()'
p2320
(dp2321
g859
I10
ssS'RawSocketTest.testSendToReceiveFromIPv4()'
p2322
(dp2323
g859
I12
ssS'ProcessTest.testLaunch()'
p2324
(dp2325
g859
I13
ssS'SemaphoreTest.testInitZero()'
p2326
(dp2327
g859
I20
ssS'SocketTest.testAvailable()'
p2328
(dp2329
g859
I13
ssS'HTTPRequestTest.testRead3()'
p2330
(dp2331
g859
I14
ssS'OptionTest.testProcess1()'
p2332
(dp2333
g859
I42
ssS'ODBCTest.testAsync()'
p2334
(dp2335
g859
I10
ssS'FileStreamTest.testOpen()'
p2336
(dp2337
g859
I4
ssS'SAXParserTest.testUndeclaredNamespace()'
p2338
(dp2339
g859
I5
ssS'DateTimeParserTest.testCustom()'
p2340
(dp2341
g859
I25
ssS'ODBCTest.testFloat()'
p2342
(dp2343
g859
I10
ssS'ICMPClientTest.testPing()'
p2344
(dp2345
g859
I5
ssS'BinaryReaderWriterTest.testBigEndian()'
p2346
(dp2347
g859
I9
ssS'ConditionTest.testBroadcast()'
p2348
(dp2349
g859
I26
ssS'HashTableTest.testUpdate()'
p2350
(dp2351
g859
I12
ssS'LRUCacheTest.testCacheSize0()'
p2352
(dp2353
g859
I2
ssS'SessionPoolTest.testSessionPool()'
p2354
(dp2355
g859
I10
ssS'StreamConverterTest.testErrorsOut()'
p2356
(dp2357
g859
I8
ssS'HTMLFormTest.testReadUrl2()'
p2358
(dp2359
g859
I8
ssS'BasicEventTest.testOverwriteDelegate()'
p2360
(dp2361
g859
I9
ssS'StringTest.testTranslate()'
p2362
(dp2363
g859
I6
ssS'HTTPServerTest.testBuffer()'
p2364
(dp2365
g859
I13
ssS'ODBCTest.testCombinedIllegalLimits()'
p2366
(dp2367
g859
I10
ssS'IPAddressTest.testMCClassification6()'
p2368
(dp2369
g859
I0
ssS'ODBCTest.testInsertEmptyList()'
p2370
(dp2371
g859
I10
ssS'SQLiteTest.testPrimaryKeyConstraint()'
p2372
(dp2373
g859
I10
ssS'MessageHeaderTest.testRead1()'
p2374
(dp2375
g859
I8
ssS'SQLiteTest.testTuple4()'
p2376
(dp2377
g859
I10
ssS'PathTest.testParseWindows1()'
p2378
(dp2379
g859
I52
ssS'NetworkInterfaceTest.testForAddress()'
p2380
(dp2381
g859
I6
ssS'TuplesTest.testTuple7()'
p2382
(dp2383
g859
I8
ssS'POP3ClientSessionTest.testRetrieveHeader()'
p2384
(dp2385
g859
I17
ssS'CoreTest.testBugcheck()'
p2386
(dp2387
g859
I6
ssS'PathTest.testParseUnix2()'
p2388
(dp2389
g859
I48
ssS'PathTest.testBaseNameExt()'
p2390
(dp2391
g859
I20
ssS'DynamicAnyTest.testInt16()'
p2392
(dp2393
g859
I73
ssS'FormatTest.testAnyInt()'
p2394
(dp2395
g859
I42
ssS'DataTest.testProperties()'
p2396
(dp2397
g859
I10
ssS'TreeWalkerTest.testShowNothing()'
p2398
(dp2399
g859
I19
ssS'NameTest.testPrefix()'
p2400
(dp2401
g859
I9
ssS'CoreTest.testFixedLength()'
p2402
(dp2403
g859
I11
ssS'ChannelTest.testAsync()'
p2404
(dp2405
g859
I8
ssS'AnyTest.testVector()'
p2406
(dp2407
g859
I11
ssS'SQLiteTest.testSelectIntoSingleFail()'
p2408
(dp2409
g859
I10
ssS'ODBCTest.testInsertList()'
p2410
(dp2411
g859
I10
ssS'ElementTest.testElementsByTagName()'
p2412
(dp2413
g859
I65
ssS'LocalDateTimeTest.testSwap()'
p2414
(dp2415
g859
I5
ssS'AbstractConfigurationTest.testKeys()'
p2416
(dp2417
g859
I22
ssS'SAXParserTest.testSimple1()'
p2418
(dp2419
g859
I3
ssS'NumberFormatterTest.testFormat()'
p2420
(dp2421
g859
I22
ssS'ODBCTest.testTuple()'
p2422
(dp2423
g859
I10
ssS'DateTimeTest.testJulian()'
p2424
(dp2425
g859
I40
ssS'LocalDateTimeTest.testGregorian2()'
p2426
(dp2427
g859
I20
ssS'SQLiteTest.testMultiSetComplex()'
p2428
(dp2429
g859
I10
ssS'WinConfigurationTest.testConfiguration()'
p2430
(dp2431
g859
I11
ssS'IPAddressTest.testClassification()'
p2432
(dp2433
g859
I112
ssS'LocalDateTimeTest.testTimezone()'
p2434
(dp2435
g859
I36
ssS'SocketReactorTest.testSocketReactor()'
p2436
(dp2437
g859
I9
ssS'ODBCTest.testSQLChannel()'
p2438
(dp2439
g859
I10
ssS'HashMapTest.testConstIterator()'
p2440
(dp2441
g859
I14
ssS'ODBCTest.testStoredProcedure()'
p2442
(dp2443
g859
I10
ssS'ICMPSocketTest.testAssign()'
p2444
(dp2445
g859
I2
ssS'DateTimeTest.testRelational()'
p2446
(dp2447
g859
I32
ssS'DateTimeTest.testDayOfWeek()'
p2448
(dp2449
g859
I9
ssS'HTTPServerTest.testKeepAliveTimeout()'
p2450
(dp2451
g859
I36
ssS'LayeredConfigurationTest.testTwoLayers()'
p2452
(dp2453
g859
I25
ssS'QuotedPrintableTest.testDecode()'
p2454
(dp2455
g859
I8
ssS'HTTPSServerTest.testChunkedRequestKeepAlive()'
p2456
(dp2457
g859
I10
ssS'ExpireLRUCacheTest.testCacheSize1()'
p2458
(dp2459
g859
I16
ssS'ODBCTest.testSetSimple()'
p2460
(dp2461
g859
I10
ssS'SQLiteTest.testBindingCount()'
p2462
(dp2463
g859
I10
ssS'StringTest.testTrimLeftInPlace()'
p2464
(dp2465
g859
I6
ssS'HTTPSStreamFactoryTest.testEmptyPath()'
p2466
(dp2467
g859
I10
ssS'POP3ClientSessionTest.testRetrieveMessages()'
p2468
(dp2469
g859
I23
ssS'IPAddressTest.testRelationals6()'
p2470
(dp2471
g859
I0
ssS'UniqueExpireLRUCacheTest.testCacheSizeN()'
p2472
(dp2473
g859
I36
ssS'ActiveMethodTest.testTryWait()'
p2474
(dp2475
g859
I9
ssS'NamedTuplesTest.testNamedTuple7()'
p2476
(dp2477
g859
I37
ssS'ODBCTest.testRowIterator()'
p2478
(dp2479
g859
I10
ssS'NodeIteratorTest.testShowNothing()'
p2480
(dp2481
g859
I14
ssS'SAXParserTest.testCharacters()'
p2482
(dp2483
g859
I5
ssS'HTTPSClientSessionTest.testGetLarge()'
p2484
(dp2485
g859
I10
ssS'FormatTest.testString()'
p2486
(dp2487
g859
I11
ssS'TeeStreamTest.testTeeOutputStream()'
p2488
(dp2489
g859
I7
ssS'XMLWriterTest.testQNamespacesNested()'
p2490
(dp2491
g859
I10
ssS'SQLiteTest.testSimpleAccess()'
p2492
(dp2493
g859
I10
ssS'SQLiteTest.testTupleVector2()'
p2494
(dp2495
g859
I10
ssS'PriorityEventTest.testPriorityOrder()'
p2496
(dp2497
g859
I17
ssS'HTMLFormTest.testSubmit3()'
p2498
(dp2499
g859
I13
ssS'RegularExpressionTest.testExtract()'
p2500
(dp2501
g859
I10
ssS'WinRegistryTest.testRegistry()'
p2502
(dp2503
g859
I27
ssS'SQLiteTest.testRange()'
p2504
(dp2505
g859
I10
ssS'ByteOrderTest.testByteOrderLittleEndian()'
p2506
(dp2507
g859
I100
ssS'ParserWriterTest.testParseWriteXHTML2()'
p2508
(dp2509
g859
I8
ssS'FIFOEventTest.testNoDelegate()'
p2510
(dp2511
g859
I31
ssS'HTTPSServerTest.testNotImpl()'
p2512
(dp2513
g859
I10
ssS'URIStreamOpenerTest.testStreamOpenerRelative()'
p2514
(dp2515
g859
I13
ssS'TimestampTest.testTimestamp()'
p2516
(dp2517
g859
I37
ssS'PriorityEventTest.testDuplicateUnregister()'
p2518
(dp2519
g859
I14
ssS'SocketStreamTest.testEOF()'
p2520
(dp2521
g859
I18
ssS'ODBCTest.testDynamicAny()'
p2522
(dp2523
g859
I10
ssS'BinaryReaderWriterTest.testLittleEndian()'
p2524
(dp2525
g859
I9
ssS'DateTimeFormatterTest.testASCTIME()'
p2526
(dp2527
g859
I3
ssS'FileStreamTest.testOpenModeApp()'
p2528
(dp2529
g859
I13
ssS'TextConverterTest.testIdentityUTF8()'
p2530
(dp2531
g859
I48
ssS'SQLiteTest.testTuple2()'
p2532
(dp2533
g859
I10
ssS'XMLWriterTest.testNamespacesNested()'
p2534
(dp2535
g859
I12
ssS'NameTest.testName()'
p2536
(dp2537
g859
I22
ssS'DateTimeTest.testUTC()'
p2538
(dp2539
g859
I6
ssS'TimespanTest.testConversions()'
p2540
(dp2541
g859
I37
ssS'FileStreamTest.testOpenModeTrunc()'
p2542
(dp2543
g859
I13
ssS'NamedTuplesTest.testNamedTuple17()'
p2544
(dp2545
g859
I64
ssS'ConfigurationMapperTest.testMapper3()'
p2546
(dp2547
g859
I21
ssS'NamedTuplesTest.testNamedTuple15()'
p2548
(dp2549
g859
I57
ssS'ByteOrderTest.testByteOrderFlip()'
p2550
(dp2551
g859
I31
ssS'LoggerTest.testDump()'
p2552
(dp2553
g859
I22
ssS'BasicEventTest.testAsyncNotify()'
p2554
(dp2555
g859
I11
ssS'ODBCTest.testBLOB()'
p2556
(dp2557
g859
I10
ssS'ExpireLRUCacheTest.testExpireN()'
p2558
(dp2559
g859
I38
ssS'HTTPClientSessionTest.testPostLargeIdentity()'
p2560
(dp2561
g859
I13
ssS'ODBCTest.testInsertVector()'
p2562
(dp2563
g859
I10
ssS'NotificationCenterTest.testDefaultCenter()'
p2564
(dp2565
g859
I6
ssS'SQLiteTest.testAffectedRows()'
p2566
(dp2567
g859
I10
ssS'ThreadTest.testJoin()'
p2568
(dp2569
g859
I10
ssS'LocalDateTimeTest.testRelational1()'
p2570
(dp2571
g859
I15
ssS'XMLWriterTest.testCharacters()'
p2572
(dp2573
g859
I9
ssS'PriorityEventTest.testSingleDelegate()'
p2574
(dp2575
g859
I31
ssS'ODBCTest.testInsertSingleBulkVec()'
p2576
(dp2577
g859
I10
ssS'TuplesTest.testTuple9()'
p2578
(dp2579
g859
I8
ssS'SQLiteTest.testTupleVector8()'
p2580
(dp2581
g859
I10
ssS'ODBCTest.testSingleSelect()'
p2582
(dp2583
g859
I10
ssS'LoggerTest.testLogger()'
p2584
(dp2585
g859
I98
ssS'UUIDGeneratorTest.testTimeBased()'
p2586
(dp2587
g859
I9
ssS'ElementTest.testAttrMapNS()'
p2588
(dp2589
g859
I32
ssS'StreamTokenizerTest.testTokenizer4()'
p2590
(dp2591
g859
I14
ssS'SocketTest.testConnectRefusedNB()'
p2592
(dp2593
g859
I9
ssS'URITest.testConstruction()'
p2594
(dp2595
g859
I108
ssS'FileTest.testCreateFile()'
p2596
(dp2597
g859
I6
ssS'LogStreamTest.testLogStream()'
p2598
(dp2599
g859
I12
ssS'EventTest.testInsertSubtree()'
p2600
(dp2601
g859
I24
ssS'UniqueExpireCacheTest.testExpireN()'
p2602
(dp2603
g859
I38
ssS'AsyncIOChannelTest.testRead()'
p2604
(dp2605
g859
I7
ssS'ActiveDispatcherTest.testWaitInterval()'
p2606
(dp2607
g859
I10
ssS'XMLWriterTest.testDTDNotation()'
p2608
(dp2609
g859
I15
ssS'FileTest.testCopy()'
p2610
(dp2611
g859
I8
ssS'DateTimeTest.testCalcs()'
p2612
(dp2613
g859
I91
ssS'ODBCTest.testSimpleAccessList()'
p2614
(dp2615
g859
I10
ssS'MailMessageTest.testWrite8Bit()'
p2616
(dp2617
g859
I12
ssS'TimerTest.testTimer()'
p2618
(dp2619
g859
I19
ssS'MessageHeaderTest.testSplitParameters()'
p2620
(dp2621
g859
I42
ssS'MD5EngineTest.testMD5()'
p2622
(dp2623
g859
I16
ssS'XMLWriterTest.testAttributes()'
p2624
(dp2625
g859
I11
ssS'ExpireCacheTest.testClear()'
p2626
(dp2627
g859
I14
ssS'SAXParserTest.testNoNamespaces()'
p2628
(dp2629
g859
I4
ssS'TextTest.testInsert()'
p2630
(dp2631
g859
I8
ssS'HTTPClientSessionTest.testHead()'
p2632
(dp2633
g859
I10
ssS'UniqueExpireCacheTest.testExpirationDecorator()'
p2634
(dp2635
g859
I8
ssS'ODBCTest.testLowerLimitFail()'
p2636
(dp2637
g859
I10
ssS'SQLiteTest.testTuple9()'
p2638
(dp2639
g859
I10
ssS'DataTest.testDateAndTime()'
p2640
(dp2641
g859
I10
ssS'DynamicAnyTest.testChar()'
p2642
(dp2643
g859
I57
ssS'DynamicAnyTest.testLimitsInt()'
p2644
(dp2645
g859
I42
ssS'UniqueExpireLRUCacheTest.testCacheSize2()'
p2646
(dp2647
g859
I26
ssS'BasicEventTest.testDuplicateRegister()'
p2648
(dp2649
g859
I9
ssS'SQLiteTest.testAny()'
p2650
(dp2651
g859
I10
ssS'XMLWriterTest.testTrivial()'
p2652
(dp2653
g859
I8
ssS'HTTPResponseTest.testRead2()'
p2654
(dp2655
g859
I11
ssS'ExpireLRUCacheTest.testClear()'
p2656
(dp2657
g859
I14
ssS'HashSetTest.testErase()'
p2658
(dp2659
g859
I35
ssS'DynamicAnyTest.testFloat()'
p2660
(dp2661
g859
I73
ssS'SAXParserTest.testParseMemory()'
p2662
(dp2663
g859
I3
ssS'XMLWriterTest.testDTD()'
p2664
(dp2665
g859
I11
ssS'ValidatorTest.testRegExpValidator()'
p2666
(dp2667
g859
I20
ssS'FileChannelTest.testPurgeCount()'
p2668
(dp2669
g859
I21
ssS'NodeAppenderTest.testAppendNodeList()'
p2670
(dp2671
g859
I34
ssS'SQLiteTest.testTuple1()'
p2672
(dp2673
g859
I10
ssS'DateTimeTest.testStatics()'
p2674
(dp2675
g859
I14
ssS'MessageHeaderTest.testReadFolding5()'
p2676
(dp2677
g859
I8
ssS'NodeTest.testInsertFragment2()'
p2678
(dp2679
g859
I76
ssS'MessageHeaderTest.testReadFolding1()'
p2680
(dp2681
g859
I8
ssS'LoggingRegistryTest.testRegister()'
p2682
(dp2683
g859
I20
ssS'TuplesTest.testTuple16()'
p2684
(dp2685
g859
I9
ssS'XMLWriterTest.testDefaultNamespace()'
p2686
(dp2687
g859
I11
ssS'DocumentTypeTest.testDocumentType()'
p2688
(dp2689
g859
I36
ssS'POP3ClientSessionTest.testLogin()'
p2690
(dp2691
g859
I14
ssS'RandomTest.testDistribution2()'
p2692
(dp2693
g859
I23
ssS'TypeListTest.testTypeList()'
p2694
(dp2695
g859
I174
ssS'HTTPServerTest.testAuth()'
p2696
(dp2697
g859
I14
ssS'HTTPServerTest.testChunkedRequest()'
p2698
(dp2699
g859
I18
ssS'ActiveDispatcherTest.testVoid()'
p2700
(dp2701
g859
I7
ssS'ParserWriterTest.testParseWriteWSDL()'
p2702
(dp2703
g859
I13
ssS'LocalDateTimeTest.testAMPM()'
p2704
(dp2705
g859
I12
ssS'UTF8StringTest.testTransform()'
p2706
(dp2707
g859
I11
ssS'DNSTest.testHostByName()'
p2708
(dp2709
g859
I8
ssS'TimerTest.testDuplicateStop()'
p2710
(dp2711
g859
I8
ssS'TextIteratorTest.testEmptyLatin1()'
p2712
(dp2713
g859
I5
ssS'NamedMutexTest.testLock()'
p2714
(dp2715
g859
I9
ssS'DynamicAnyTest.testLong()'
p2716
(dp2717
g859
I73
ssS'ODBCTest.testInternalStorageType()'
p2718
(dp2719
g859
I10
ssS'NDCTest.testNDCScope()'
p2720
(dp2721
g859
I9
ssS'UniqueExpireCacheTest.testAccessUpdate()'
p2722
(dp2723
g859
I21
ssS'ThreadLocalTest.testAccessors()'
p2724
(dp2725
g859
I7
ssS'ODBCTest.testBulkPerformance()'
p2726
(dp2727
g859
I10
ssS'XMLWriterTest.testWellformedNested()'
p2728
(dp2729
g859
I7
ssS'TextIteratorTest.testUTF8()'
p2730
(dp2731
g859
I20
ssS'TextConverterTest.testUTF8toASCII()'
p2732
(dp2733
g859
I12
ssS'SQLiteTest.testNull()'
p2734
(dp2735
g859
I10
ssS'ProcessTest.testLaunchRedirectIn()'
p2736
(dp2737
g859
I15
ssS'NameTest.testSplit()'
p2738
(dp2739
g859
I14
ssS'UUIDTest.testVersion()'
p2740
(dp2741
g859
I12
ssS'DateTimeTest.testIncrementDecrement()'
p2742
(dp2743
g859
I65
ssS'XMLWriterTest.testEmptyCharacters()'
p2744
(dp2745
g859
I9
ssS'ActiveMethodTest.testVoidOut()'
p2746
(dp2747
g859
I6
ssS'HTTPClientSessionTest.testKeepAlive()'
p2748
(dp2749
g859
I40
ssS'OptionTest.testOption()'
p2750
(dp2751
g859
I39
ssS'XMLWriterTest.testAttributeNamespaces()'
p2752
(dp2753
g859
I12
ssS'ThreadPoolTest.testThreadPool()'
p2754
(dp2755
g859
I66
ssS'MultipartReaderTest.testReadTwoParts()'
p2756
(dp2757
g859
I27
ssS'PriorityEventTest.testAsyncNotify()'
p2758
(dp2759
g859
I11
ssS'DynamicAnyTest.testString()'
p2760
(dp2761
g859
I62
ssS'LocalDateTimeTest.testConversions()'
p2762
(dp2763
g859
I31
ssS'AutoReleasePoolTest.testAutoReleasePool()'
p2764
(dp2765
g859
I6
ssS'FTPClientSessionTest.testList()'
p2766
(dp2767
g859
I26
ssS'DynamicAnyTest.testJSONDeserializeStruct()'
p2768
(dp2769
g859
I31
ssS'ODBCTest.testInsertDeque()'
p2770
(dp2771
g859
I10
ssS'HTTPSServerTest.test100Continue()'
p2772
(dp2773
g859
I10
ssS'RegularExpressionTest.testMatch1()'
p2774
(dp2775
g859
I5
ssS'HexBinaryTest.testDecoder()'
p2776
(dp2777
g859
I58
ssS'XMLWriterTest.testDTDEntity()'
p2778
(dp2779
g859
I15
ssS'HTTPResponseTest.testInvalid2()'
p2780
(dp2781
g859
I7
ssS'ZLibTest.testDeflate3()'
p2782
(dp2783
g859
I15
ssS'DataTest.testColumnVectorBool()'
p2784
(dp2785
g859
I10
ssS'RegularExpressionTest.testMatch2()'
p2786
(dp2787
g859
I14
ssS'PathTest.testStatics()'
p2788
(dp2789
g859
I15
ssS'ThreadLocalTest.testLocality()'
p2790
(dp2791
g859
I15
ssS'ODBCTest.testAny()'
p2792
(dp2793
g859
I10
ssS'PriorityEventTest.testExpireReRegister()'
p2794
(dp2795
g859
I15
ssS'AbstractConfigurationTest.testGetString()'
p2796
(dp2797
g859
I14
ssS'SQLiteTest.testIllegalRange()'
p2798
(dp2799
g859
I10
ssS'SQLiteTest.testSetSimple()'
p2800
(dp2801
g859
I10
ssS'StopwatchTest.testStopwatch()'
p2802
(dp2803
g859
I20
ssS'TuplesTest.testTuple1()'
p2804
(dp2805
g859
I20
ssS'SyslogTest.testListener()'
p2806
(dp2807
g859
I20
ssS'SystemConfigurationTest.testKeys()'
p2808
(dp2809
g859
I15
ssS'SystemConfigurationTest.testProperties()'
p2810
(dp2811
g859
I11
ssS'DateTimeParserTest.testGuess()'
p2812
(dp2813
g859
I41
ssS'NamedTuplesTest.testNamedTuple18()'
p2814
(dp2815
g859
I67
ssS'ActiveMethodTest.testVoidInOut()'
p2816
(dp2817
g859
I6
ssS'URIStreamOpenerTest.testStreamOpenerPathResolve()'
p2818
(dp2819
g859
I14
ssS'NodeTest.testReplaceFragment2()'
p2820
(dp2821
g859
I101
ssS'SQLiteTest.testExternalBindingAndExtraction()'
p2822
(dp2823
g859
I10
ssS'MultipartReaderTest.testReadOnePart()'
p2824
(dp2825
g859
I19
ssS'DateTimeParserTest.testRFC1036()'
p2826
(dp2827
g859
I25
ssS'GlobTest.testMatchAsterisk()'
p2828
(dp2829
g859
I68
ssS'ActiveMethodTest.testCopy()'
p2830
(dp2831
g859
I31
ssS'TreeWalkerTest.testFilter()'
p2832
(dp2833
g859
I73
ssS'SQLiteTest.testSetComplexUnique()'
p2834
(dp2835
g859
I10
ssS'SAXParserTest.testRSS()'
p2836
(dp2837
g859
I14
ssS'MessageHeaderTest.testReadInvalid1()'
p2838
(dp2839
g859
I6
ssS'ODBCTest.testNull()'
p2840
(dp2841
g859
I10
ssS'SQLiteTest.testMapComplex()'
p2842
(dp2843
g859
I10
ssS'HTTPClientSessionTest.testGetLarge()'
p2844
(dp2845
g859
I11
ssS'FileTest.testRename()'
p2846
(dp2847
g859
I10
ssS'TuplesTest.testTuple17()'
p2848
(dp2849
g859
I9
ssS'DynamicAnyTest.testDynamicStructBasics()'
p2850
(dp2851
g859
I14
ssS'TuplesTest.testTuple15()'
p2852
(dp2853
g859
I9
ssS'TreeWalkerTest.testShowAll()'
p2854
(dp2855
g859
I41
ssS'NodeTest.testAppend()'
p2856
(dp2857
g859
I26
ssS'HTTPSServerTest.testRedirect()'
p2858
(dp2859
g859
I10
ssS'RegularExpressionTest.testError()'
p2860
(dp2861
g859
I2
ssS'HTTPResponseTest.testWrite2()'
p2862
(dp2863
g859
I7
ssS'IPAddressTest.testStringConv6()'
p2864
(dp2865
g859
I12
ssS'NamedTuplesTest.testNamedTuple6()'
p2866
(dp2867
g859
I36
ssS'HashMapTest.testErase()'
p2868
(dp2869
g859
I37
ssS'StringTest.testTrimInPlace()'
p2870
(dp2871
g859
I6
ssS'HTTPRequestTest.testRead1()'
p2872
(dp2873
g859
I9
ssS'ODBCTest.testIllegalRange()'
p2874
(dp2875
g859
I10
ssS'ODBCTest.testInsertEmptyVector()'
p2876
(dp2877
g859
I10
ssS'FileTest.testMove()'
p2878
(dp2879
g859
I11
ssS'ActiveMethodTest.testWait()'
p2880
(dp2881
g859
I8
ssS'UniqueExpireCacheTest.testAccessDuplicateAdd()'
p2882
(dp2883
g859
I7
ssS'DynamicAnyTest.testInt8()'
p2884
(dp2885
g859
I73
ssS'XMLWriterTest.testComment()'
p2886
(dp2887
g859
I12
ssS'SQLiteTest.testTuple8()'
p2888
(dp2889
g859
I10
ssS'DataTest.testFeatures()'
p2890
(dp2891
g859
I10
ssS'HashSetTest.testIterator()'
p2892
(dp2893
g859
I13
ssS'FileChannelTest.testRotateAtTimeMinLocal()'
p2894
(dp2895
g859
I16
ssS'BasicEventTest.testDisabling()'
p2896
(dp2897
g859
I14
ssS'XMLWriterTest.testTrivialFragment()'
p2898
(dp2899
g859
I8
ssS'ODBCTest.testLimitPrepare()'
p2900
(dp2901
g859
I10
ssS'SQLiteTest.testDynamicAny()'
p2902
(dp2903
g859
I10
ssS'NotificationCenterTest.test3()'
p2904
(dp2905
g859
I9
ssS'LoggingFactoryTest.testBuiltins()'
p2906
(dp2907
g859
I14
ssS'ManifestTest.testManifest()'
p2908
(dp2909
g859
I44
ssS'DataTest.testRowSort()'
p2910
(dp2911
g859
I10
ssS'RegularExpressionTest.testMatch5()'
p2912
(dp2913
g859
I4
ssS'TaskManagerTest.testCustomThreadPool()'
p2914
(dp2915
g859
I13
ssS'SocketTest.testSelect2()'
p2916
(dp2917
g859
I39
ssS'SAXParserTest.testNamespaces()'
p2918
(dp2919
g859
I5
ssS'ThreadTest.testNamedThread()'
p2920
(dp2921
g859
I7
ssS'UUIDTest.testCompare()'
p2922
(dp2923
g859
I35
ssS'MailMessageTest.testRead8Bit()'
p2924
(dp2925
g859
I6
ssS'HTTPSClientSessionTest.testProxy()'
p2926
(dp2927
g859
I10
ssS'DateTimeParserTest.testISO8601()'
p2928
(dp2929
g859
I41
ssS'OptionProcessorTest.testUnix()'
p2930
(dp2931
g859
I36
ssS'XMLWriterTest.testWellformed()'
p2932
(dp2933
g859
I6
ssS'MailMessageTest.testWriteMultiPart()'
p2934
(dp2935
g859
I25
ssS'SQLiteTest.testLowerLimitFail()'
p2936
(dp2937
g859
I10
ssS'TaskTest.testCancel2()'
p2938
(dp2939
g859
I10
ssS'HTTPSClientSessionTest.testPostSmallClose()'
p2940
(dp2941
g859
I10
ssS'StreamConverterTest.testIdentityUTF8In()'
p2942
(dp2943
g859
I27
ssS'FIFOEventTest.testExpire()'
p2944
(dp2945
g859
I8
ssS'UniqueExpireLRUCacheTest.testClear()'
p2946
(dp2947
g859
I14
ssS'XMLConfigurationTest.testLoad()'
p2948
(dp2949
g859
I40
ssS'SQLiteTest.testTupleVector4()'
p2950
(dp2951
g859
I10
ssS'ODBCTest.testDateTime()'
p2952
(dp2953
g859
I10
ssS'SQLiteTest.testTupleVector1()'
p2954
(dp2955
g859
I10
ssS'SharedLibraryTest.testSharedLibrary3()'
p2956
(dp2957
g859
I17
ssS'HTTPSClientSessionTest.testPostLargeIdentity()'
p2958
(dp2959
g859
I10
ssS'ODBCTest.testTime()'
p2960
(dp2961
g859
I10
ssS'ODBCTest.testDouble()'
p2962
(dp2963
g859
I10
ssS'TextIteratorTest.testLatin1()'
p2964
(dp2965
g859
I21
ssS'ODBCTest.testStoredFunction()'
p2966
(dp2967
g859
I10
ssS'ODBCTest.testBulk()'
p2968
(dp2969
g859
I10
ssS'LineEndingConverterTest.testOutputDosToUnix()'
p2970
(dp2971
g859
I5
ssS'UniqueExpireLRUCacheTest.testDuplicateAdd()'
p2972
(dp2973
g859
I7
ssS'StreamTokenizerTest.testTokenizer5()'
p2974
(dp2975
g859
I17
ssS'ODBCTest.testSimpleAccess()'
p2976
(dp2977
g859
I10
ssS'SQLiteTest.testCombinedIllegalLimits()'
p2978
(dp2979
g859
I10
ssS'XMLWriterTest.testDTDPretty()'
p2980
(dp2981
g859
I11
ssS'PriorityEventTest.testPriorityOrderExpire()'
p2982
(dp2983
g859
I28
ssS'FIFOEventTest.testFIFOOrder()'
p2984
(dp2985
g859
I15
ssS'SQLiteTest.testInsertCharPointer2()'
p2986
(dp2987
g859
I10
ssS'ZLibTest.testDeflate1()'
p2988
(dp2989
g859
I11
ssS'FIFOEventTest.testOverwriteDelegate()'
p2990
(dp2991
g859
I9
ssS'PathTest.testSwap()'
p2992
(dp2993
g859
I5
ssS'SimpleFileChannelTest.testRotate()'
p2994
(dp2995
g859
I17
ssS'PathTest.testAbsolute()'
p2996
(dp2997
g859
I12
ssS'SharedMemoryTest.testCreateFromFile()'
p2998
(dp2999
g859
I8
ssS'DatagramSocketTest.testEcho()'
p3000
(dp3001
g859
I10
ssS'StringTest.testCat()'
p3002
(dp3003
g859
I20
ssS'RawSocketTest.testEchoIPv4()'
p3004
(dp3005
g859
I13
ssS'SAXParserTest.testCDATA()'
p3006
(dp3007
g859
I3
ssS'SQLiteTest.testInsertCharPointer()'
p3008
(dp3009
g859
I10
ssS'SAXParserTest.testNamespacesNoPrefixes()'
p3010
(dp3011
g859
I5
ssS'PathTest.testParent()'
p3012
(dp3013
g859
I9
ssS'TextTest.testSplitCDATA()'
p3014
(dp3015
g859
I7
ssS'LoggingConfiguratorTest.testBadConfiguration4()'
p3016
(dp3017
g859
I6
ssS'IPAddressTest.testMCClassification()'
p3018
(dp3019
g859
I70
ssS'FIFOEventTest.testFIFOOrderExpire()'
p3020
(dp3021
g859
I26
ssS'FTPStreamFactoryTest.testDownload()'
p3022
(dp3023
g859
I26
ssS'ODBCTest.testLowerLimitOk()'
p3024
(dp3025
g859
I10
ssS'SAXParserTest.testExternalUnparsed()'
p3026
(dp3027
g859
I3
ssS'ODBCTest.testBLOBContainer()'
p3028
(dp3029
g859
I10
ssS'ODBCTest.testMapComplexUnique()'
p3030
(dp3031
g859
I10
ssS'NotificationCenterTest.testAuto()'
p3032
(dp3033
g859
I6
ssS'StringTest.testReplace()'
p3034
(dp3035
g859
I31
ssS'NotificationCenterTest.test1()'
p3036
(dp3037
g859
I2
ssS'URIStreamOpenerTest.testStreamOpenerPath()'
p3038
(dp3039
g859
I11
ssS'URIStreamOpenerTest.testRegisterUnregister()'
p3040
(dp3041
g859
I11
ssS'SMTPClientSessionTest.testSend()'
p3042
(dp3043
g859
I44
ssS'ActiveDispatcherTest.testVoidIn()'
p3044
(dp3045
g859
I8
sssS'SensitiveEquality'
p3046
(dp3047
S'SensitiveEquality32'
p3048
(dp3049
S'NrTS'
p3050
I8
ssS'SensitiveEquality33'
p3051
(dp3052
g3050
I6
ssS'SensitiveEquality29'
p3053
(dp3054
g3050
I2
ssS'SensitiveEquality28'
p3055
(dp3056
g3050
I13
ssS'SensitiveEquality21'
p3057
(dp3058
g3050
I9
ssS'SensitiveEquality20'
p3059
(dp3060
g3050
I7
ssS'SensitiveEquality23'
p3061
(dp3062
g3050
I2
ssS'SensitiveEquality22'
p3063
(dp3064
g3050
I8
ssS'SensitiveEquality25'
p3065
(dp3066
g3050
I27
ssS'SensitiveEquality24'
p3067
(dp3068
g3050
I2
ssS'SensitiveEquality27'
p3069
(dp3070
g3050
I10
ssS'SensitiveEquality26'
p3071
(dp3072
g3050
I15
ssS'SensitiveEquality8'
p3073
(dp3074
g3050
I7
ssS'SensitiveEquality9'
p3075
(dp3076
g3050
I2
ssS'SensitiveEquality6'
p3077
(dp3078
g3050
I14
ssS'SensitiveEquality7'
p3079
(dp3080
g3050
I1
ssS'SensitiveEquality4'
p3081
(dp3082
g3050
I5
ssS'SensitiveEquality5'
p3083
(dp3084
g3050
I4
ssS'SensitiveEquality2'
p3085
(dp3086
g3050
I13
ssS'SensitiveEquality3'
p3087
(dp3088
g3050
I2
ssS'SensitiveEquality0'
p3089
(dp3090
g3050
I1
ssS'SensitiveEquality1'
p3091
(dp3092
g3050
I8
ssS'SensitiveEquality14'
p3093
(dp3094
g3050
I1
ssS'SensitiveEquality15'
p3095
(dp3096
g3050
I3
ssS'SensitiveEquality16'
p3097
(dp3098
g3050
I1
ssS'SensitiveEquality17'
p3099
(dp3100
g3050
I1
ssS'SensitiveEquality10'
p3101
(dp3102
g3050
I5
ssS'SensitiveEquality11'
p3103
(dp3104
g3050
I3
ssS'SensitiveEquality12'
p3105
(dp3106
g3050
I1
ssS'SensitiveEquality13'
p3107
(dp3108
g3050
I4
ssS'SensitiveEquality34'
p3109
(dp3110
g3050
I21
ssS'SensitiveEquality35'
p3111
(dp3112
g3050
I2
ssS'SensitiveEquality18'
p3113
(dp3114
g3050
I1
ssS'SensitiveEquality19'
p3115
(dp3116
g3050
I2
ssS'SensitiveEquality30'
p3117
(dp3118
g3050
I12
ssS'SensitiveEquality31'
p3119
(dp3120
g3050
I1
sssS'AssertionRoulette'
p3121
(dp3122
S'AssertionRoulette370'
p3123
(dp3124
S'NrDA'
p3125
I26
sS'NrA'
p3126
I26
ssS'AssertionRoulette36'
p3127
(dp3128
g3125
I14
sg3126
I14
ssS'AssertionRoulette37'
p3129
(dp3130
g3125
I-1
sg3126
I-1
ssS'AssertionRoulette34'
p3131
(dp3132
g3125
I14
sg3126
I14
ssS'AssertionRoulette35'
p3133
(dp3134
g3125
I26
sg3126
I26
ssS'AssertionRoulette32'
p3135
(dp3136
g3125
I17
sg3126
I17
ssS'AssertionRoulette33'
p3137
(dp3138
g3125
I19
sg3126
I19
ssS'AssertionRoulette30'
p3139
(dp3140
g3125
I21
sg3126
I21
ssS'AssertionRoulette31'
p3141
(dp3142
g3125
I16
sg3126
I16
ssS'AssertionRoulette81'
p3143
(dp3144
g3125
I8
sg3126
I8
ssS'AssertionRoulette38'
p3145
(dp3146
g3125
I43
sg3126
I43
ssS'AssertionRoulette39'
p3147
(dp3148
g3125
I17
sg3126
I17
ssS'AssertionRoulette145'
p3149
(dp3150
g3125
I11
sg3126
I11
ssS'AssertionRoulette144'
p3151
(dp3152
g3125
I9
sg3126
I9
ssS'AssertionRoulette147'
p3153
(dp3154
g3125
I8
sg3126
I8
ssS'AssertionRoulette146'
p3155
(dp3156
g3125
I6
sg3126
I6
ssS'AssertionRoulette141'
p3157
(dp3158
g3125
I11
sg3126
I11
ssS'AssertionRoulette140'
p3159
(dp3160
g3125
I12
sg3126
I12
ssS'AssertionRoulette143'
p3161
(dp3162
g3125
I27
sg3126
I27
ssS'AssertionRoulette142'
p3163
(dp3164
g3125
I9
sg3126
I9
ssS'AssertionRoulette149'
p3165
(dp3166
g3125
I-1
sg3126
I-1
ssS'AssertionRoulette148'
p3167
(dp3168
g3125
I28
sg3126
I28
ssS'AssertionRoulette43'
p3169
(dp3170
g3125
I-1
sg3126
I-1
ssS'AssertionRoulette42'
p3171
(dp3172
g3125
I11
sg3126
I11
ssS'AssertionRoulette41'
p3173
(dp3174
g3125
I6
sg3126
I6
ssS'AssertionRoulette40'
p3175
(dp3176
g3125
I12
sg3126
I12
ssS'AssertionRoulette47'
p3177
(dp3178
g3125
I-1
sg3126
I-1
ssS'AssertionRoulette46'
p3179
(dp3180
g3125
I17
sg3126
I17
ssS'AssertionRoulette45'
p3181
(dp3182
g3125
I14
sg3126
I14
ssS'AssertionRoulette44'
p3183
(dp3184
g3125
I17
sg3126
I17
ssS'AssertionRoulette49'
p3185
(dp3186
g3125
I13
sg3126
I13
ssS'AssertionRoulette48'
p3187
(dp3188
g3125
I11
sg3126
I11
ssS'AssertionRoulette52'
p3189
(dp3190
g3125
I10
sg3126
I10
ssS'AssertionRoulette53'
p3191
(dp3192
g3125
I24
sg3126
I24
ssS'AssertionRoulette54'
p3193
(dp3194
g3125
I12
sg3126
I12
ssS'AssertionRoulette55'
p3195
(dp3196
g3125
I14
sg3126
I14
ssS'AssertionRoulette293'
p3197
(dp3198
g3125
I-1
sg3126
I-1
ssS'AssertionRoulette57'
p3199
(dp3200
g3125
I28
sg3126
I28
ssS'AssertionRoulette321'
p3201
(dp3202
g3125
I7
sg3126
I7
ssS'AssertionRoulette320'
p3203
(dp3204
g3125
I17
sg3126
I17
ssS'AssertionRoulette288'
p3205
(dp3206
g3125
I16
sg3126
I16
ssS'AssertionRoulette322'
p3207
(dp3208
g3125
I8
sg3126
I8
ssS'AssertionRoulette325'
p3209
(dp3210
g3125
I14
sg3126
I14
ssS'AssertionRoulette324'
p3211
(dp3212
g3125
I16
sg3126
I16
ssS'AssertionRoulette327'
p3213
(dp3214
g3125
I26
sg3126
I26
ssS'AssertionRoulette326'
p3215
(dp3216
g3125
I53
sg3126
I53
ssS'AssertionRoulette329'
p3217
(dp3218
g3125
I26
sg3126
I26
ssS'AssertionRoulette328'
p3219
(dp3220
g3125
I9
sg3126
I9
ssS'AssertionRoulette280'
p3221
(dp3222
g3125
I14
sg3126
I14
ssS'AssertionRoulette281'
p3223
(dp3224
g3125
I7
sg3126
I7
ssS'AssertionRoulette286'
p3225
(dp3226
g3125
I18
sg3126
I18
ssS'AssertionRoulette287'
p3227
(dp3228
g3125
I-1
sg3126
I-1
ssS'AssertionRoulette284'
p3229
(dp3230
g3125
I9
sg3126
I9
ssS'AssertionRoulette285'
p3231
(dp3232
g3125
I36
sg3126
I36
ssS'AssertionRoulette354'
p3233
(dp3234
g3125
I6
sg3126
I6
ssS'AssertionRoulette355'
p3235
(dp3236
g3125
I26
sg3126
I26
ssS'AssertionRoulette356'
p3237
(dp3238
g3125
I16
sg3126
I16
ssS'AssertionRoulette357'
p3239
(dp3240
g3125
I17
sg3126
I17
ssS'AssertionRoulette219'
p3241
(dp3242
g3125
I14
sg3126
I14
ssS'AssertionRoulette218'
p3243
(dp3244
g3125
I27
sg3126
I27
ssS'AssertionRoulette352'
p3245
(dp3246
g3125
I9
sg3126
I9
ssS'AssertionRoulette353'
p3247
(dp3248
g3125
I21
sg3126
I21
ssS'AssertionRoulette215'
p3249
(dp3250
g3125
I7
sg3126
I7
ssS'AssertionRoulette214'
p3251
(dp3252
g3125
I-1
sg3126
I-1
ssS'AssertionRoulette217'
p3253
(dp3254
g3125
I6
sg3126
I6
ssS'AssertionRoulette216'
p3255
(dp3256
g3125
I-1
sg3126
I-1
ssS'AssertionRoulette211'
p3257
(dp3258
g3125
I10
sg3126
I10
ssS'AssertionRoulette210'
p3259
(dp3260
g3125
I26
sg3126
I26
ssS'AssertionRoulette213'
p3261
(dp3262
g3125
I17
sg3126
I17
ssS'AssertionRoulette212'
p3263
(dp3264
g3125
I6
sg3126
I6
ssS'AssertionRoulette306'
p3265
(dp3266
g3125
I32
sg3126
I32
ssS'AssertionRoulette109'
p3267
(dp3268
g3125
I11
sg3126
I11
ssS'AssertionRoulette108'
p3269
(dp3270
g3125
I58
sg3126
I58
ssS'AssertionRoulette101'
p3271
(dp3272
g3125
I9
sg3126
I9
ssS'AssertionRoulette100'
p3273
(dp3274
g3125
I7
sg3126
I7
ssS'AssertionRoulette103'
p3275
(dp3276
g3125
I8
sg3126
I8
ssS'AssertionRoulette102'
p3277
(dp3278
g3125
I26
sg3126
I26
ssS'AssertionRoulette105'
p3279
(dp3280
g3125
I12
sg3126
I12
ssS'AssertionRoulette104'
p3281
(dp3282
g3125
I9
sg3126
I9
ssS'AssertionRoulette107'
p3283
(dp3284
g3125
I6
sg3126
I6
ssS'AssertionRoulette106'
p3285
(dp3286
g3125
I9
sg3126
I9
ssS'AssertionRoulette178'
p3287
(dp3288
g3125
I6
sg3126
I6
ssS'AssertionRoulette179'
p3289
(dp3290
g3125
I7
sg3126
I7
ssS'AssertionRoulette174'
p3291
(dp3292
g3125
I11
sg3126
I11
ssS'AssertionRoulette175'
p3293
(dp3294
g3125
I21
sg3126
I21
ssS'AssertionRoulette176'
p3295
(dp3296
g3125
I26
sg3126
I26
ssS'AssertionRoulette177'
p3297
(dp3298
g3125
I-1
sg3126
I-1
ssS'AssertionRoulette170'
p3299
(dp3300
g3125
I26
sg3126
I26
ssS'AssertionRoulette171'
p3301
(dp3302
g3125
I7
sg3126
I7
ssS'AssertionRoulette172'
p3303
(dp3304
g3125
I11
sg3126
I11
ssS'AssertionRoulette173'
p3305
(dp3306
g3125
I40
sg3126
I40
ssS'AssertionRoulette318'
p3307
(dp3308
g3125
I9
sg3126
I9
ssS'AssertionRoulette319'
p3309
(dp3310
g3125
I29
sg3126
I29
ssS'AssertionRoulette310'
p3311
(dp3312
g3125
I45
sg3126
I45
ssS'AssertionRoulette311'
p3313
(dp3314
g3125
I6
sg3126
I6
ssS'AssertionRoulette312'
p3315
(dp3316
g3125
I12
sg3126
I12
ssS'AssertionRoulette313'
p3317
(dp3318
g3125
I-1
sg3126
I-1
ssS'AssertionRoulette314'
p3319
(dp3320
g3125
I21
sg3126
I21
ssS'AssertionRoulette315'
p3321
(dp3322
g3125
I56
sg3126
I56
ssS'AssertionRoulette316'
p3323
(dp3324
g3125
I7
sg3126
I7
ssS'AssertionRoulette317'
p3325
(dp3326
g3125
I7
sg3126
I7
ssS'AssertionRoulette251'
p3327
(dp3328
g3125
I13
sg3126
I13
ssS'AssertionRoulette250'
p3329
(dp3330
g3125
I32
sg3126
I32
ssS'AssertionRoulette253'
p3331
(dp3332
g3125
I8
sg3126
I8
ssS'AssertionRoulette252'
p3333
(dp3334
g3125
I6
sg3126
I6
ssS'AssertionRoulette255'
p3335
(dp3336
g3125
I7
sg3126
I7
ssS'AssertionRoulette254'
p3337
(dp3338
g3125
I27
sg3126
I27
ssS'AssertionRoulette257'
p3339
(dp3340
g3125
I12
sg3126
I12
ssS'AssertionRoulette256'
p3341
(dp3342
g3125
I48
sg3126
I48
ssS'AssertionRoulette259'
p3343
(dp3344
g3125
I-1
sg3126
I-1
ssS'AssertionRoulette258'
p3345
(dp3346
g3125
I18
sg3126
I18
ssS'AssertionRoulette224'
p3347
(dp3348
g3125
I8
sg3126
I8
ssS'AssertionRoulette225'
p3349
(dp3350
g3125
I17
sg3126
I17
ssS'AssertionRoulette226'
p3351
(dp3352
g3125
I10
sg3126
I10
ssS'AssertionRoulette227'
p3353
(dp3354
g3125
I16
sg3126
I16
ssS'AssertionRoulette220'
p3355
(dp3356
g3125
I7
sg3126
I7
ssS'AssertionRoulette221'
p3357
(dp3358
g3125
I13
sg3126
I13
ssS'AssertionRoulette222'
p3359
(dp3360
g3125
I-1
sg3126
I-1
ssS'AssertionRoulette223'
p3361
(dp3362
g3125
I27
sg3126
I27
ssS'AssertionRoulette228'
p3363
(dp3364
g3125
I8
sg3126
I8
ssS'AssertionRoulette229'
p3365
(dp3366
g3125
I6
sg3126
I6
ssS'AssertionRoulette130'
p3367
(dp3368
g3125
I48
sg3126
I48
ssS'AssertionRoulette131'
p3369
(dp3370
g3125
I15
sg3126
I15
ssS'AssertionRoulette132'
p3371
(dp3372
g3125
I6
sg3126
I6
ssS'AssertionRoulette133'
p3373
(dp3374
g3125
I15
sg3126
I15
ssS'AssertionRoulette134'
p3375
(dp3376
g3125
I21
sg3126
I21
ssS'AssertionRoulette135'
p3377
(dp3378
g3125
I8
sg3126
I8
ssS'AssertionRoulette136'
p3379
(dp3380
g3125
I32
sg3126
I32
ssS'AssertionRoulette137'
p3381
(dp3382
g3125
I19
sg3126
I19
ssS'AssertionRoulette138'
p3383
(dp3384
g3125
I-1
sg3126
I-1
ssS'AssertionRoulette139'
p3385
(dp3386
g3125
I11
sg3126
I11
ssS'AssertionRoulette295'
p3387
(dp3388
g3125
I25
sg3126
I25
ssS'AssertionRoulette294'
p3389
(dp3390
g3125
I6
sg3126
I6
ssS'AssertionRoulette297'
p3391
(dp3392
g3125
I8
sg3126
I8
ssS'AssertionRoulette296'
p3393
(dp3394
g3125
I7
sg3126
I7
ssS'AssertionRoulette291'
p3395
(dp3396
g3125
I10
sg3126
I10
ssS'AssertionRoulette290'
p3397
(dp3398
g3125
I9
sg3126
I9
ssS'AssertionRoulette56'
p3399
(dp3400
g3125
I-1
sg3126
I-1
ssS'AssertionRoulette292'
p3401
(dp3402
g3125
I6
sg3126
I6
ssS'AssertionRoulette58'
p3403
(dp3404
g3125
I8
sg3126
I8
ssS'AssertionRoulette59'
p3405
(dp3406
g3125
I30
sg3126
I30
ssS'AssertionRoulette299'
p3407
(dp3408
g3125
I36
sg3126
I36
ssS'AssertionRoulette298'
p3409
(dp3410
g3125
I15
sg3126
I15
ssS'AssertionRoulette6'
p3411
(dp3412
g3125
I20
sg3126
I20
ssS'AssertionRoulette7'
p3413
(dp3414
g3125
I58
sg3126
I58
ssS'AssertionRoulette4'
p3415
(dp3416
g3125
I42
sg3126
I42
ssS'AssertionRoulette5'
p3417
(dp3418
g3125
I6
sg3126
I6
ssS'AssertionRoulette2'
p3419
(dp3420
g3125
I7
sg3126
I7
ssS'AssertionRoulette3'
p3421
(dp3422
g3125
I48
sg3126
I48
ssS'AssertionRoulette0'
p3423
(dp3424
g3125
I20
sg3126
I20
ssS'AssertionRoulette1'
p3425
(dp3426
g3125
I14
sg3126
I14
ssS'AssertionRoulette8'
p3427
(dp3428
g3125
I41
sg3126
I41
ssS'AssertionRoulette9'
p3429
(dp3430
g3125
I-1
sg3126
I-1
ssS'AssertionRoulette349'
p3431
(dp3432
g3125
I21
sg3126
I21
ssS'AssertionRoulette348'
p3433
(dp3434
g3125
I-1
sg3126
I-1
ssS'AssertionRoulette268'
p3435
(dp3436
g3125
I10
sg3126
I12
ssS'AssertionRoulette269'
p3437
(dp3438
g3125
I28
sg3126
I28
ssS'AssertionRoulette345'
p3439
(dp3440
g3125
I30
sg3126
I30
ssS'AssertionRoulette344'
p3441
(dp3442
g3125
I11
sg3126
I11
ssS'AssertionRoulette343'
p3443
(dp3444
g3125
I20
sg3126
I20
ssS'AssertionRoulette342'
p3445
(dp3446
g3125
I7
sg3126
I7
ssS'AssertionRoulette341'
p3447
(dp3448
g3125
I12
sg3126
I12
ssS'AssertionRoulette340'
p3449
(dp3450
g3125
I28
sg3126
I28
ssS'AssertionRoulette260'
p3451
(dp3452
g3125
I16
sg3126
I16
ssS'AssertionRoulette261'
p3453
(dp3454
g3125
I30
sg3126
I30
ssS'AssertionRoulette262'
p3455
(dp3456
g3125
I18
sg3126
I18
ssS'AssertionRoulette263'
p3457
(dp3458
g3125
I15
sg3126
I15
ssS'AssertionRoulette264'
p3459
(dp3460
g3125
I8
sg3126
I8
ssS'AssertionRoulette265'
p3461
(dp3462
g3125
I24
sg3126
I24
ssS'AssertionRoulette266'
p3463
(dp3464
g3125
I8
sg3126
I8
ssS'AssertionRoulette267'
p3465
(dp3466
g3125
I8
sg3126
I8
ssS'AssertionRoulette114'
p3467
(dp3468
g3125
I8
sg3126
I8
ssS'AssertionRoulette18'
p3469
(dp3470
g3125
I6
sg3126
I6
ssS'AssertionRoulette19'
p3471
(dp3472
g3125
I9
sg3126
I9
ssS'AssertionRoulette14'
p3473
(dp3474
g3125
I6
sg3126
I6
ssS'AssertionRoulette15'
p3475
(dp3476
g3125
I6
sg3126
I6
ssS'AssertionRoulette16'
p3477
(dp3478
g3125
I13
sg3126
I13
ssS'AssertionRoulette17'
p3479
(dp3480
g3125
I6
sg3126
I6
ssS'AssertionRoulette10'
p3481
(dp3482
g3125
I14
sg3126
I14
ssS'AssertionRoulette11'
p3483
(dp3484
g3125
I10
sg3126
I10
ssS'AssertionRoulette12'
p3485
(dp3486
g3125
I7
sg3126
I7
ssS'AssertionRoulette13'
p3487
(dp3488
g3125
I6
sg3126
I6
ssS'AssertionRoulette87'
p3489
(dp3490
g3125
I14
sg3126
I14
ssS'AssertionRoulette86'
p3491
(dp3492
g3125
I9
sg3126
I9
ssS'AssertionRoulette85'
p3493
(dp3494
g3125
I20
sg3126
I20
ssS'AssertionRoulette84'
p3495
(dp3496
g3125
I7
sg3126
I7
ssS'AssertionRoulette83'
p3497
(dp3498
g3125
I-1
sg3126
I-1
ssS'AssertionRoulette82'
p3499
(dp3500
g3125
I54
sg3126
I54
ssS'AssertionRoulette169'
p3501
(dp3502
g3125
I36
sg3126
I36
ssS'AssertionRoulette168'
p3503
(dp3504
g3125
I14
sg3126
I14
ssS'AssertionRoulette167'
p3505
(dp3506
g3125
I50
sg3126
I50
ssS'AssertionRoulette166'
p3507
(dp3508
g3125
I17
sg3126
I17
ssS'AssertionRoulette165'
p3509
(dp3510
g3125
I13
sg3126
I13
ssS'AssertionRoulette164'
p3511
(dp3512
g3125
I15
sg3126
I15
ssS'AssertionRoulette163'
p3513
(dp3514
g3125
I26
sg3126
I26
ssS'AssertionRoulette162'
p3515
(dp3516
g3125
I7
sg3126
I7
ssS'AssertionRoulette161'
p3517
(dp3518
g3125
I6
sg3126
I6
ssS'AssertionRoulette160'
p3519
(dp3520
g3125
I26
sg3126
I26
ssS'AssertionRoulette309'
p3521
(dp3522
g3125
I14
sg3126
I14
ssS'AssertionRoulette308'
p3523
(dp3524
g3125
I52
sg3126
I52
ssS'AssertionRoulette303'
p3525
(dp3526
g3125
I10
sg3126
I10
ssS'AssertionRoulette302'
p3527
(dp3528
g3125
I58
sg3126
I58
ssS'AssertionRoulette301'
p3529
(dp3530
g3125
I35
sg3126
I35
ssS'AssertionRoulette300'
p3531
(dp3532
g3125
I8
sg3126
I8
ssS'AssertionRoulette307'
p3533
(dp3534
g3125
I13
sg3126
I13
ssS'AssertionRoulette323'
p3535
(dp3536
g3125
I26
sg3126
I26
ssS'AssertionRoulette305'
p3537
(dp3538
g3125
I20
sg3126
I20
ssS'AssertionRoulette304'
p3539
(dp3540
g3125
I7
sg3126
I7
ssS'AssertionRoulette289'
p3541
(dp3542
g3125
I12
sg3126
I12
ssS'AssertionRoulette282'
p3543
(dp3544
g3125
I10
sg3126
I10
ssS'AssertionRoulette283'
p3545
(dp3546
g3125
I30
sg3126
I30
ssS'AssertionRoulette237'
p3547
(dp3548
g3125
I31
sg3126
I31
ssS'AssertionRoulette236'
p3549
(dp3550
g3125
I15
sg3126
I15
ssS'AssertionRoulette235'
p3551
(dp3552
g3125
I11
sg3126
I11
ssS'AssertionRoulette234'
p3553
(dp3554
g3125
I23
sg3126
I23
ssS'AssertionRoulette233'
p3555
(dp3556
g3125
I7
sg3126
I9
ssS'AssertionRoulette232'
p3557
(dp3558
g3125
I24
sg3126
I24
ssS'AssertionRoulette231'
p3559
(dp3560
g3125
I26
sg3126
I26
ssS'AssertionRoulette230'
p3561
(dp3562
g3125
I19
sg3126
I19
ssS'AssertionRoulette239'
p3563
(dp3564
g3125
I6
sg3126
I6
ssS'AssertionRoulette238'
p3565
(dp3566
g3125
I20
sg3126
I20
ssS'AssertionRoulette158'
p3567
(dp3568
g3125
I12
sg3126
I12
ssS'AssertionRoulette159'
p3569
(dp3570
g3125
I9
sg3126
I9
ssS'AssertionRoulette123'
p3571
(dp3572
g3125
I7
sg3126
I7
ssS'AssertionRoulette122'
p3573
(dp3574
g3125
I10
sg3126
I10
ssS'AssertionRoulette121'
p3575
(dp3576
g3125
I7
sg3126
I7
ssS'AssertionRoulette120'
p3577
(dp3578
g3125
I55
sg3126
I55
ssS'AssertionRoulette127'
p3579
(dp3580
g3125
I9
sg3126
I9
ssS'AssertionRoulette126'
p3581
(dp3582
g3125
I39
sg3126
I39
ssS'AssertionRoulette125'
p3583
(dp3584
g3125
I29
sg3126
I29
ssS'AssertionRoulette124'
p3585
(dp3586
g3125
I6
sg3126
I8
ssS'AssertionRoulette129'
p3587
(dp3588
g3125
I8
sg3126
I8
ssS'AssertionRoulette128'
p3589
(dp3590
g3125
I6
sg3126
I6
ssS'AssertionRoulette65'
p3591
(dp3592
g3125
I60
sg3126
I60
ssS'AssertionRoulette64'
p3593
(dp3594
g3125
I6
sg3126
I6
ssS'AssertionRoulette67'
p3595
(dp3596
g3125
I36
sg3126
I36
ssS'AssertionRoulette66'
p3597
(dp3598
g3125
I9
sg3126
I9
ssS'AssertionRoulette61'
p3599
(dp3600
g3125
I-1
sg3126
I-1
ssS'AssertionRoulette60'
p3601
(dp3602
g3125
I8
sg3126
I8
ssS'AssertionRoulette63'
p3603
(dp3604
g3125
I37
sg3126
I37
ssS'AssertionRoulette62'
p3605
(dp3606
g3125
I7
sg3126
I7
ssS'AssertionRoulette156'
p3607
(dp3608
g3125
I12
sg3126
I12
ssS'AssertionRoulette69'
p3609
(dp3610
g3125
I22
sg3126
I22
ssS'AssertionRoulette68'
p3611
(dp3612
g3125
I7
sg3126
I7
ssS'AssertionRoulette157'
p3613
(dp3614
g3125
I10
sg3126
I10
ssS'AssertionRoulette196'
p3615
(dp3616
g3125
I8
sg3126
I8
ssS'AssertionRoulette197'
p3617
(dp3618
g3125
I21
sg3126
I21
ssS'AssertionRoulette194'
p3619
(dp3620
g3125
I10
sg3126
I10
ssS'AssertionRoulette195'
p3621
(dp3622
g3125
I58
sg3126
I58
ssS'AssertionRoulette192'
p3623
(dp3624
g3125
I34
sg3126
I34
ssS'AssertionRoulette193'
p3625
(dp3626
g3125
I26
sg3126
I26
ssS'AssertionRoulette190'
p3627
(dp3628
g3125
I34
sg3126
I34
ssS'AssertionRoulette191'
p3629
(dp3630
g3125
I6
sg3126
I6
ssS'AssertionRoulette198'
p3631
(dp3632
g3125
I7
sg3126
I9
ssS'AssertionRoulette199'
p3633
(dp3634
g3125
I8
sg3126
I8
ssS'AssertionRoulette371'
p3635
(dp3636
g3125
I24
sg3126
I24
ssS'AssertionRoulette350'
p3637
(dp3638
g3125
I10
sg3126
I10
ssS'AssertionRoulette351'
p3639
(dp3640
g3125
I24
sg3126
I24
ssS'AssertionRoulette372'
p3641
(dp3642
g3125
I9
sg3126
I9
ssS'AssertionRoulette373'
p3643
(dp3644
g3125
I22
sg3126
I22
ssS'AssertionRoulette279'
p3645
(dp3646
g3125
I26
sg3126
I26
ssS'AssertionRoulette278'
p3647
(dp3648
g3125
I15
sg3126
I15
ssS'AssertionRoulette376'
p3649
(dp3650
g3125
I-1
sg3126
I-1
ssS'AssertionRoulette377'
p3651
(dp3652
g3125
I13
sg3126
I13
ssS'AssertionRoulette374'
p3653
(dp3654
g3125
I10
sg3126
I10
ssS'AssertionRoulette375'
p3655
(dp3656
g3125
I-1
sg3126
I-1
ssS'AssertionRoulette273'
p3657
(dp3658
g3125
I-1
sg3126
I-1
ssS'AssertionRoulette272'
p3659
(dp3660
g3125
I20
sg3126
I20
ssS'AssertionRoulette271'
p3661
(dp3662
g3125
I15
sg3126
I15
ssS'AssertionRoulette270'
p3663
(dp3664
g3125
I8
sg3126
I8
ssS'AssertionRoulette277'
p3665
(dp3666
g3125
I42
sg3126
I42
ssS'AssertionRoulette276'
p3667
(dp3668
g3125
I44
sg3126
I44
ssS'AssertionRoulette275'
p3669
(dp3670
g3125
I16
sg3126
I16
ssS'AssertionRoulette274'
p3671
(dp3672
g3125
I-1
sg3126
I-1
ssS'AssertionRoulette358'
p3673
(dp3674
g3125
I13
sg3126
I13
ssS'AssertionRoulette359'
p3675
(dp3676
g3125
I43
sg3126
I43
ssS'AssertionRoulette21'
p3677
(dp3678
g3125
I27
sg3126
I27
ssS'AssertionRoulette20'
p3679
(dp3680
g3125
I21
sg3126
I21
ssS'AssertionRoulette23'
p3681
(dp3682
g3125
I10
sg3126
I10
ssS'AssertionRoulette22'
p3683
(dp3684
g3125
I8
sg3126
I8
ssS'AssertionRoulette25'
p3685
(dp3686
g3125
I18
sg3126
I18
ssS'AssertionRoulette24'
p3687
(dp3688
g3125
I57
sg3126
I57
ssS'AssertionRoulette27'
p3689
(dp3690
g3125
I17
sg3126
I17
ssS'AssertionRoulette26'
p3691
(dp3692
g3125
I33
sg3126
I33
ssS'AssertionRoulette29'
p3693
(dp3694
g3125
I7
sg3126
I7
ssS'AssertionRoulette28'
p3695
(dp3696
g3125
I57
sg3126
I57
ssS'AssertionRoulette94'
p3697
(dp3698
g3125
I18
sg3126
I18
ssS'AssertionRoulette95'
p3699
(dp3700
g3125
I13
sg3126
I13
ssS'AssertionRoulette96'
p3701
(dp3702
g3125
I26
sg3126
I26
ssS'AssertionRoulette97'
p3703
(dp3704
g3125
I11
sg3126
I11
ssS'AssertionRoulette90'
p3705
(dp3706
g3125
I11
sg3126
I11
ssS'AssertionRoulette91'
p3707
(dp3708
g3125
I9
sg3126
I9
ssS'AssertionRoulette92'
p3709
(dp3710
g3125
I6
sg3126
I6
ssS'AssertionRoulette93'
p3711
(dp3712
g3125
I26
sg3126
I26
ssS'AssertionRoulette152'
p3713
(dp3714
g3125
I24
sg3126
I24
ssS'AssertionRoulette153'
p3715
(dp3716
g3125
I6
sg3126
I6
ssS'AssertionRoulette150'
p3717
(dp3718
g3125
I10
sg3126
I10
ssS'AssertionRoulette151'
p3719
(dp3720
g3125
I15
sg3126
I15
ssS'AssertionRoulette98'
p3721
(dp3722
g3125
I28
sg3126
I28
ssS'AssertionRoulette99'
p3723
(dp3724
g3125
I-1
sg3126
I-1
ssS'AssertionRoulette154'
p3725
(dp3726
g3125
I8
sg3126
I8
ssS'AssertionRoulette155'
p3727
(dp3728
g3125
I9
sg3126
I9
ssS'AssertionRoulette336'
p3729
(dp3730
g3125
I18
sg3126
I18
ssS'AssertionRoulette337'
p3731
(dp3732
g3125
I21
sg3126
I21
ssS'AssertionRoulette334'
p3733
(dp3734
g3125
I24
sg3126
I24
ssS'AssertionRoulette335'
p3735
(dp3736
g3125
I46
sg3126
I48
ssS'AssertionRoulette332'
p3737
(dp3738
g3125
I26
sg3126
I26
ssS'AssertionRoulette333'
p3739
(dp3740
g3125
I6
sg3126
I6
ssS'AssertionRoulette330'
p3741
(dp3742
g3125
I12
sg3126
I12
ssS'AssertionRoulette331'
p3743
(dp3744
g3125
I15
sg3126
I15
ssS'AssertionRoulette338'
p3745
(dp3746
g3125
I21
sg3126
I21
ssS'AssertionRoulette339'
p3747
(dp3748
g3125
I36
sg3126
I36
ssS'AssertionRoulette202'
p3749
(dp3750
g3125
I19
sg3126
I19
ssS'AssertionRoulette203'
p3751
(dp3752
g3125
I15
sg3126
I15
ssS'AssertionRoulette200'
p3753
(dp3754
g3125
I14
sg3126
I14
ssS'AssertionRoulette201'
p3755
(dp3756
g3125
I8
sg3126
I8
ssS'AssertionRoulette206'
p3757
(dp3758
g3125
I6
sg3126
I6
ssS'AssertionRoulette207'
p3759
(dp3760
g3125
I21
sg3126
I21
ssS'AssertionRoulette204'
p3761
(dp3762
g3125
I33
sg3126
I33
ssS'AssertionRoulette205'
p3763
(dp3764
g3125
I6
sg3126
I6
ssS'AssertionRoulette208'
p3765
(dp3766
g3125
I12
sg3126
I12
ssS'AssertionRoulette209'
p3767
(dp3768
g3125
I10
sg3126
I10
ssS'AssertionRoulette50'
p3769
(dp3770
g3125
I16
sg3126
I16
ssS'AssertionRoulette118'
p3771
(dp3772
g3125
I15
sg3126
I15
ssS'AssertionRoulette119'
p3773
(dp3774
g3125
I26
sg3126
I26
ssS'AssertionRoulette116'
p3775
(dp3776
g3125
I15
sg3126
I15
ssS'AssertionRoulette117'
p3777
(dp3778
g3125
I6
sg3126
I6
ssS'AssertionRoulette51'
p3779
(dp3780
g3125
I14
sg3126
I14
ssS'AssertionRoulette115'
p3781
(dp3782
g3125
I44
sg3126
I44
ssS'AssertionRoulette112'
p3783
(dp3784
g3125
I20
sg3126
I20
ssS'AssertionRoulette113'
p3785
(dp3786
g3125
I7
sg3126
I7
ssS'AssertionRoulette110'
p3787
(dp3788
g3125
I6
sg3126
I6
ssS'AssertionRoulette111'
p3789
(dp3790
g3125
I11
sg3126
I11
ssS'AssertionRoulette78'
p3791
(dp3792
g3125
I10
sg3126
I10
ssS'AssertionRoulette79'
p3793
(dp3794
g3125
I6
sg3126
I6
ssS'AssertionRoulette72'
p3795
(dp3796
g3125
I18
sg3126
I18
ssS'AssertionRoulette73'
p3797
(dp3798
g3125
I8
sg3126
I8
ssS'AssertionRoulette70'
p3799
(dp3800
g3125
I26
sg3126
I26
ssS'AssertionRoulette71'
p3801
(dp3802
g3125
I7
sg3126
I7
ssS'AssertionRoulette76'
p3803
(dp3804
g3125
I7
sg3126
I7
ssS'AssertionRoulette77'
p3805
(dp3806
g3125
I21
sg3126
I21
ssS'AssertionRoulette74'
p3807
(dp3808
g3125
I47
sg3126
I47
ssS'AssertionRoulette75'
p3809
(dp3810
g3125
I14
sg3126
I14
ssS'AssertionRoulette347'
p3811
(dp3812
g3125
I11
sg3126
I11
ssS'AssertionRoulette181'
p3813
(dp3814
g3125
I11
sg3126
I11
ssS'AssertionRoulette180'
p3815
(dp3816
g3125
I8
sg3126
I8
ssS'AssertionRoulette183'
p3817
(dp3818
g3125
I23
sg3126
I23
ssS'AssertionRoulette182'
p3819
(dp3820
g3125
I49
sg3126
I49
ssS'AssertionRoulette185'
p3821
(dp3822
g3125
I10
sg3126
I10
ssS'AssertionRoulette184'
p3823
(dp3824
g3125
I9
sg3126
I9
ssS'AssertionRoulette187'
p3825
(dp3826
g3125
I47
sg3126
I47
ssS'AssertionRoulette186'
p3827
(dp3828
g3125
I6
sg3126
I6
ssS'AssertionRoulette189'
p3829
(dp3830
g3125
I9
sg3126
I9
ssS'AssertionRoulette188'
p3831
(dp3832
g3125
I49
sg3126
I49
ssS'AssertionRoulette80'
p3833
(dp3834
g3125
I32
sg3126
I32
ssS'AssertionRoulette346'
p3835
(dp3836
g3125
I12
sg3126
I12
ssS'AssertionRoulette89'
p3837
(dp3838
g3125
I7
sg3126
I7
ssS'AssertionRoulette88'
p3839
(dp3840
g3125
I18
sg3126
I18
ssS'AssertionRoulette369'
p3841
(dp3842
g3125
I36
sg3126
I36
ssS'AssertionRoulette368'
p3843
(dp3844
g3125
I12
sg3126
I12
ssS'AssertionRoulette365'
p3845
(dp3846
g3125
I14
sg3126
I14
ssS'AssertionRoulette364'
p3847
(dp3848
g3125
I23
sg3126
I23
ssS'AssertionRoulette367'
p3849
(dp3850
g3125
I14
sg3126
I14
ssS'AssertionRoulette366'
p3851
(dp3852
g3125
I10
sg3126
I10
ssS'AssertionRoulette361'
p3853
(dp3854
g3125
I22
sg3126
I22
ssS'AssertionRoulette360'
p3855
(dp3856
g3125
I30
sg3126
I30
ssS'AssertionRoulette363'
p3857
(dp3858
g3125
I21
sg3126
I21
ssS'AssertionRoulette362'
p3859
(dp3860
g3125
I35
sg3126
I35
ssS'AssertionRoulette246'
p3861
(dp3862
g3125
I7
sg3126
I7
ssS'AssertionRoulette247'
p3863
(dp3864
g3125
I6
sg3126
I6
ssS'AssertionRoulette244'
p3865
(dp3866
g3125
I8
sg3126
I8
ssS'AssertionRoulette245'
p3867
(dp3868
g3125
I11
sg3126
I11
ssS'AssertionRoulette242'
p3869
(dp3870
g3125
I-1
sg3126
I-1
ssS'AssertionRoulette243'
p3871
(dp3872
g3125
I9
sg3126
I9
ssS'AssertionRoulette240'
p3873
(dp3874
g3125
I17
sg3126
I17
ssS'AssertionRoulette241'
p3875
(dp3876
g3125
I12
sg3126
I12
ssS'AssertionRoulette248'
p3877
(dp3878
g3125
I13
sg3126
I13
ssS'AssertionRoulette249'
p3879
(dp3880
g3125
I6
sg3126
I6
sssS'IndentedTest'
p3881
(dp3882
S'IndentedTest72'
p3883
(dp3884
S'NrCS'
p3885
I3
ssS'IndentedTest73'
p3886
(dp3887
g3885
I2
ssS'IndentedTest70'
p3888
(dp3889
g3885
I3
ssS'IndentedTest71'
p3890
(dp3891
g3885
I1
ssS'IndentedTest76'
p3892
(dp3893
g3885
I2
ssS'IndentedTest77'
p3894
(dp3895
g3885
I2
ssS'IndentedTest74'
p3896
(dp3897
g3885
I10
ssS'IndentedTest75'
p3898
(dp3899
g3885
I1
ssS'IndentedTest78'
p3900
(dp3901
g3885
I1
ssS'IndentedTest79'
p3902
(dp3903
g3885
I2
ssS'IndentedTest180'
p3904
(dp3905
g3885
I2
ssS'IndentedTest100'
p3906
(dp3907
g3885
I3
ssS'IndentedTest109'
p3908
(dp3909
g3885
I1
ssS'IndentedTest108'
p3910
(dp3911
g3885
I1
ssS'IndentedTest89'
p3912
(dp3913
g3885
I3
ssS'IndentedTest88'
p3914
(dp3915
g3885
I2
ssS'IndentedTest87'
p3916
(dp3917
g3885
I3
ssS'IndentedTest86'
p3918
(dp3919
g3885
I2
ssS'IndentedTest85'
p3920
(dp3921
g3885
I2
ssS'IndentedTest84'
p3922
(dp3923
g3885
I6
ssS'IndentedTest83'
p3924
(dp3925
g3885
I2
ssS'IndentedTest82'
p3926
(dp3927
g3885
I4
ssS'IndentedTest81'
p3928
(dp3929
g3885
I1
ssS'IndentedTest80'
p3930
(dp3931
g3885
I2
ssS'IndentedTest61'
p3932
(dp3933
g3885
I1
ssS'IndentedTest60'
p3934
(dp3935
g3885
I3
ssS'IndentedTest63'
p3936
(dp3937
g3885
I3
ssS'IndentedTest62'
p3938
(dp3939
g3885
I1
ssS'IndentedTest65'
p3940
(dp3941
g3885
I1
ssS'IndentedTest64'
p3942
(dp3943
g3885
I3
ssS'IndentedTest67'
p3944
(dp3945
g3885
I2
ssS'IndentedTest66'
p3946
(dp3947
g3885
I6
ssS'IndentedTest69'
p3948
(dp3949
g3885
I1
ssS'IndentedTest68'
p3950
(dp3951
g3885
I1
ssS'IndentedTest102'
p3952
(dp3953
g3885
I1
ssS'IndentedTest118'
p3954
(dp3955
g3885
I1
ssS'IndentedTest119'
p3956
(dp3957
g3885
I2
ssS'IndentedTest112'
p3958
(dp3959
g3885
I1
ssS'IndentedTest113'
p3960
(dp3961
g3885
I2
ssS'IndentedTest110'
p3962
(dp3963
g3885
I1
ssS'IndentedTest111'
p3964
(dp3965
g3885
I2
ssS'IndentedTest116'
p3966
(dp3967
g3885
I2
ssS'IndentedTest117'
p3968
(dp3969
g3885
I6
ssS'IndentedTest114'
p3970
(dp3971
g3885
I2
ssS'IndentedTest115'
p3972
(dp3973
g3885
I1
ssS'IndentedTest160'
p3974
(dp3975
g3885
I2
ssS'IndentedTest169'
p3976
(dp3977
g3885
I2
ssS'IndentedTest168'
p3978
(dp3979
g3885
I1
ssS'IndentedTest167'
p3980
(dp3981
g3885
I2
ssS'IndentedTest166'
p3982
(dp3983
g3885
I2
ssS'IndentedTest165'
p3984
(dp3985
g3885
I4
ssS'IndentedTest164'
p3986
(dp3987
g3885
I2
ssS'IndentedTest163'
p3988
(dp3989
g3885
I3
ssS'IndentedTest162'
p3990
(dp3991
g3885
I6
ssS'IndentedTest161'
p3992
(dp3993
g3885
I2
ssS'IndentedTest153'
p3994
(dp3995
g3885
I2
ssS'IndentedTest172'
p3996
(dp3997
g3885
I1
ssS'IndentedTest178'
p3998
(dp3999
g3885
I2
ssS'IndentedTest105'
p4000
(dp4001
g3885
I1
ssS'IndentedTest58'
p4002
(dp4003
g3885
I2
ssS'IndentedTest59'
p4004
(dp4005
g3885
I1
ssS'IndentedTest104'
p4006
(dp4007
g3885
I3
ssS'IndentedTest54'
p4008
(dp4009
g3885
I1
ssS'IndentedTest55'
p4010
(dp4011
g3885
I1
ssS'IndentedTest56'
p4012
(dp4013
g3885
I2
ssS'IndentedTest57'
p4014
(dp4015
g3885
I2
ssS'IndentedTest50'
p4016
(dp4017
g3885
I3
ssS'IndentedTest51'
p4018
(dp4019
g3885
I1
ssS'IndentedTest52'
p4020
(dp4021
g3885
I2
ssS'IndentedTest53'
p4022
(dp4023
g3885
I1
ssS'IndentedTest133'
p4024
(dp4025
g3885
I2
ssS'IndentedTest106'
p4026
(dp4027
g3885
I2
ssS'IndentedTest38'
p4028
(dp4029
g3885
I1
ssS'IndentedTest39'
p4030
(dp4031
g3885
I2
ssS'IndentedTest36'
p4032
(dp4033
g3885
I1
ssS'IndentedTest37'
p4034
(dp4035
g3885
I2
ssS'IndentedTest34'
p4036
(dp4037
g3885
I2
ssS'IndentedTest35'
p4038
(dp4039
g3885
I3
ssS'IndentedTest32'
p4040
(dp4041
g3885
I1
ssS'IndentedTest33'
p4042
(dp4043
g3885
I1
ssS'IndentedTest30'
p4044
(dp4045
g3885
I2
ssS'IndentedTest31'
p4046
(dp4047
g3885
I2
ssS'IndentedTest103'
p4048
(dp4049
g3885
I1
ssS'IndentedTest8'
p4050
(dp4051
g3885
I2
ssS'IndentedTest9'
p4052
(dp4053
g3885
I2
ssS'IndentedTest6'
p4054
(dp4055
g3885
I3
ssS'IndentedTest7'
p4056
(dp4057
g3885
I1
ssS'IndentedTest4'
p4058
(dp4059
g3885
I1
ssS'IndentedTest5'
p4060
(dp4061
g3885
I2
ssS'IndentedTest2'
p4062
(dp4063
g3885
I1
ssS'IndentedTest3'
p4064
(dp4065
g3885
I3
ssS'IndentedTest0'
p4066
(dp4067
g3885
I2
ssS'IndentedTest1'
p4068
(dp4069
g3885
I2
ssS'IndentedTest149'
p4070
(dp4071
g3885
I1
ssS'IndentedTest148'
p4072
(dp4073
g3885
I2
ssS'IndentedTest49'
p4074
(dp4075
g3885
I1
ssS'IndentedTest48'
p4076
(dp4077
g3885
I1
ssS'IndentedTest43'
p4078
(dp4079
g3885
I2
ssS'IndentedTest42'
p4080
(dp4081
g3885
I2
ssS'IndentedTest41'
p4082
(dp4083
g3885
I2
ssS'IndentedTest40'
p4084
(dp4085
g3885
I1
ssS'IndentedTest47'
p4086
(dp4087
g3885
I1
ssS'IndentedTest46'
p4088
(dp4089
g3885
I2
ssS'IndentedTest45'
p4090
(dp4091
g3885
I2
ssS'IndentedTest44'
p4092
(dp4093
g3885
I2
ssS'IndentedTest29'
p4094
(dp4095
g3885
I1
ssS'IndentedTest28'
p4096
(dp4097
g3885
I2
ssS'IndentedTest25'
p4098
(dp4099
g3885
I2
ssS'IndentedTest24'
p4100
(dp4101
g3885
I7
ssS'IndentedTest27'
p4102
(dp4103
g3885
I2
ssS'IndentedTest26'
p4104
(dp4105
g3885
I2
ssS'IndentedTest21'
p4106
(dp4107
g3885
I1
ssS'IndentedTest20'
p4108
(dp4109
g3885
I2
ssS'IndentedTest23'
p4110
(dp4111
g3885
I6
ssS'IndentedTest22'
p4112
(dp4113
g3885
I1
ssS'IndentedTest141'
p4114
(dp4115
g3885
I1
ssS'IndentedTest174'
p4116
(dp4117
g3885
I2
ssS'IndentedTest140'
p4118
(dp4119
g3885
I2
ssS'IndentedTest143'
p4120
(dp4121
g3885
I2
ssS'IndentedTest142'
p4122
(dp4123
g3885
I1
ssS'IndentedTest145'
p4124
(dp4125
g3885
I2
ssS'IndentedTest144'
p4126
(dp4127
g3885
I2
ssS'IndentedTest156'
p4128
(dp4129
g3885
I3
ssS'IndentedTest157'
p4130
(dp4131
g3885
I1
ssS'IndentedTest154'
p4132
(dp4133
g3885
I2
ssS'IndentedTest155'
p4134
(dp4135
g3885
I1
ssS'IndentedTest152'
p4136
(dp4137
g3885
I1
ssS'IndentedTest147'
p4138
(dp4139
g3885
I1
ssS'IndentedTest150'
p4140
(dp4141
g3885
I1
ssS'IndentedTest151'
p4142
(dp4143
g3885
I2
ssS'IndentedTest146'
p4144
(dp4145
g3885
I6
ssS'IndentedTest158'
p4146
(dp4147
g3885
I2
ssS'IndentedTest159'
p4148
(dp4149
g3885
I2
ssS'IndentedTest18'
p4150
(dp4151
g3885
I2
ssS'IndentedTest19'
p4152
(dp4153
g3885
I1
ssS'IndentedTest179'
p4154
(dp4155
g3885
I2
ssS'IndentedTest10'
p4156
(dp4157
g3885
I2
ssS'IndentedTest11'
p4158
(dp4159
g3885
I1
ssS'IndentedTest12'
p4160
(dp4161
g3885
I2
ssS'IndentedTest13'
p4162
(dp4163
g3885
I1
ssS'IndentedTest14'
p4164
(dp4165
g3885
I4
ssS'IndentedTest15'
p4166
(dp4167
g3885
I2
ssS'IndentedTest16'
p4168
(dp4169
g3885
I1
ssS'IndentedTest17'
p4170
(dp4171
g3885
I1
ssS'IndentedTest130'
p4172
(dp4173
g3885
I2
ssS'IndentedTest131'
p4174
(dp4175
g3885
I2
ssS'IndentedTest175'
p4176
(dp4177
g3885
I1
ssS'IndentedTest132'
p4178
(dp4179
g3885
I1
ssS'IndentedTest123'
p4180
(dp4181
g3885
I2
ssS'IndentedTest122'
p4182
(dp4183
g3885
I2
ssS'IndentedTest121'
p4184
(dp4185
g3885
I1
ssS'IndentedTest120'
p4186
(dp4187
g3885
I2
ssS'IndentedTest127'
p4188
(dp4189
g3885
I2
ssS'IndentedTest126'
p4190
(dp4191
g3885
I2
ssS'IndentedTest125'
p4192
(dp4193
g3885
I2
ssS'IndentedTest124'
p4194
(dp4195
g3885
I2
ssS'IndentedTest134'
p4196
(dp4197
g3885
I2
ssS'IndentedTest129'
p4198
(dp4199
g3885
I2
ssS'IndentedTest128'
p4200
(dp4201
g3885
I3
ssS'IndentedTest135'
p4202
(dp4203
g3885
I1
ssS'IndentedTest107'
p4204
(dp4205
g3885
I3
ssS'IndentedTest136'
p4206
(dp4207
g3885
I1
ssS'IndentedTest137'
p4208
(dp4209
g3885
I2
ssS'IndentedTest138'
p4210
(dp4211
g3885
I2
ssS'IndentedTest139'
p4212
(dp4213
g3885
I3
ssS'IndentedTest176'
p4214
(dp4215
g3885
I1
ssS'IndentedTest177'
p4216
(dp4217
g3885
I1
ssS'IndentedTest170'
p4218
(dp4219
g3885
I1
ssS'IndentedTest171'
p4220
(dp4221
g3885
I2
ssS'IndentedTest90'
p4222
(dp4223
g3885
I2
ssS'IndentedTest91'
p4224
(dp4225
g3885
I3
ssS'IndentedTest92'
p4226
(dp4227
g3885
I1
ssS'IndentedTest93'
p4228
(dp4229
g3885
I2
ssS'IndentedTest94'
p4230
(dp4231
g3885
I2
ssS'IndentedTest95'
p4232
(dp4233
g3885
I1
ssS'IndentedTest96'
p4234
(dp4235
g3885
I1
ssS'IndentedTest97'
p4236
(dp4237
g3885
I2
ssS'IndentedTest98'
p4238
(dp4239
g3885
I1
ssS'IndentedTest99'
p4240
(dp4241
g3885
I1
ssS'IndentedTest173'
p4242
(dp4243
g3885
I2
ssS'IndentedTest101'
p4244
(dp4245
g3885
I2
sssS'testcase'
p4246
(dp4247
S'NodeTest'
p4248
(dp4249
g859
I853
ssS'ParserWriterTest'
p4250
(dp4251
g859
I29
ssS'AnyTest'
p4252
(dp4253
g859
I37
ssS'HTTPSClientSessionTest'
p4254
(dp4255
g859
I150
ssS'DNSTest'
p4256
(dp4257
g859
I17
ssS'ZLibTest'
p4258
(dp4259
g859
I60
ssS'MD5EngineTest'
p4260
(dp4261
g859
I16
ssS'LoggingFactoryTest'
p4262
(dp4263
g859
I21
ssS'StreamTokenizerTest'
p4264
(dp4265
g859
I95
ssS'ElementTest'
p4266
(dp4267
g859
I428
ssS'StopwatchTest'
p4268
(dp4269
g859
I20
ssS'StringTest'
p4270
(dp4271
g859
I150
ssS'LocalDateTimeTest'
p4272
(dp4273
g859
I265
ssS'SocketReactorTest'
p4274
(dp4275
g859
I26
ssS'ExpireLRUCacheTest'
p4276
(dp4277
g859
I168
ssS'SessionPoolTest'
p4278
(dp4279
g859
I30
ssS'EventTest'
p4280
(dp4281
g859
I200
ssS'RWLockTest'
p4282
(dp4283
g859
I56
ssS'SimpleHashTableTest'
p4284
(dp4285
g859
I62
ssS'ThreadPoolTest'
p4286
(dp4287
g859
I75
ssS'ODBCTest'
p4288
(dp4289
g859
I980
ssS'ClassLoaderTest'
p4290
(dp4291
g859
I78
ssS'FTPStreamFactoryTest'
p4292
(dp4293
g859
I121
ssS'TimespanTest'
p4294
(dp4295
g859
I80
ssS'AutoReleasePoolTest'
p4296
(dp4297
g859
I6
ssS'ThreadTest'
p4298
(dp4299
g859
I78
ssS'UTF8StringTest'
p4300
(dp4301
g859
I29
ssS'UUIDGeneratorTest'
p4302
(dp4303
g859
I32
ssS'ActiveMethodTest'
p4304
(dp4305
g859
I84
ssS'DateTimeFormatterTest'
p4306
(dp4307
g859
I69
ssS'SocketStreamTest'
p4308
(dp4309
g859
I33
ssS'MailMessageTest'
p4310
(dp4311
g859
I111
ssS'SimpleFileChannelTest'
p4312
(dp4313
g859
I33
ssS'LoggingRegistryTest'
p4314
(dp4315
g859
I58
ssS'TimestampTest'
p4316
(dp4317
g859
I37
ssS'MessageHeaderTest'
p4318
(dp4319
g859
I195
ssS'PathTest'
p4320
(dp4321
g859
I1237
ssS'LineEndingConverterTest'
p4322
(dp4323
g859
I44
ssS'NetworkInterfaceTest'
p4324
(dp4325
g859
I28
ssS'RawSocketTest'
p4326
(dp4327
g859
I25
ssS'BinaryReaderWriterTest'
p4328
(dp4329
g859
I121
ssS'AsyncIOChannelTest'
p4330
(dp4331
g859
I60
ssS'AbstractConfigurationTest'
p4332
(dp4333
g859
I109
ssS'SQLiteTest'
p4334
(dp4335
g859
I720
ssS'StreamConverterTest'
p4336
(dp4337
g859
I155
ssS'FTPClientSessionTest'
p4338
(dp4339
g859
I280
ssS'TextTest'
p4340
(dp4341
g859
I63
ssS'AttributesImplTest'
p4342
(dp4343
g859
I141
ssS'SyslogTest'
p4344
(dp4345
g859
I41
ssS'UniqueExpireLRUCacheTest'
p4346
(dp4347
g859
I156
ssS'NodeIteratorTest'
p4348
(dp4349
g859
I75
ssS'QuotedPrintableTest'
p4350
(dp4351
g859
I14
ssS'NotificationCenterTest'
p4352
(dp4353
g859
I73
ssS'DynamicAnyTest'
p4354
(dp4355
g859
I1792
ssS'FormatTest'
p4356
(dp4357
g859
I214
ssS'MultipartReaderTest'
p4358
(dp4359
g859
I191
ssS'NamedEventTest'
p4360
(dp4361
g859
I15
ssS'HTTPSServerTest'
p4362
(dp4363
g859
I120
ssS'BasicEventTest'
p4364
(dp4365
g859
I183
ssS'SharedLibraryTest'
p4366
(dp4367
g859
I45
ssS'OptionProcessorTest'
p4368
(dp4369
g859
I82
ssS'TeeStreamTest'
p4370
(dp4371
g859
I14
ssS'WinConfigurationTest'
p4372
(dp4373
g859
I11
ssS'XMLWriterTest'
p4374
(dp4375
g859
I314
ssS'ConditionTest'
p4376
(dp4377
g859
I44
ssS'LayeredConfigurationTest'
p4378
(dp4379
g859
I67
ssS'ProcessTest'
p4380
(dp4381
g859
I47
ssS'HashSetTest'
p4382
(dp4383
g859
I87
ssS'UniqueExpireCacheTest'
p4384
(dp4385
g859
I115
ssS'HashMapTest'
p4386
(dp4387
g859
I108
ssS'TuplesTest'
p4388
(dp4389
g859
I327
ssS'OptionSetTest'
p4390
(dp4391
g859
I39
ssS'RandomStreamTest'
p4392
(dp4393
g859
I25
ssS'TaskManagerTest'
p4394
(dp4395
g859
I175
ssS'HTTPCredentialsTest'
p4396
(dp4397
g859
I24
ssS'ConfigurationMapperTest'
p4398
(dp4399
g859
I75
ssS'Base64Test'
p4400
(dp4401
g859
I87
ssS'HTMLFormTest'
p4402
(dp4403
g859
I78
ssS'LoggingConfiguratorTest'
p4404
(dp4405
g859
I48
ssS'StringTokenizerTest'
p4406
(dp4407
g859
I179
ssS'HTTPCookieTest'
p4408
(dp4409
g859
I17
ssS'TreeWalkerTest'
p4410
(dp4411
g859
I167
ssS'ActiveDispatcherTest'
p4412
(dp4413
g859
I56
ssS'NotificationQueueTest'
p4414
(dp4415
g859
I110
ssS'DataTest'
p4416
(dp4417
g859
I200
ssS'MultipartWriterTest'
p4418
(dp4419
g859
I27
ssS'POP3ClientSessionTest'
p4420
(dp4421
g859
I126
ssS'TextConverterTest'
p4422
(dp4423
g859
I112
ssS'DateTimeParserTest'
p4424
(dp4425
g859
I362
ssS'NullStreamTest'
p4426
(dp4427
g859
I10
ssS'NumberParserTest'
p4428
(dp4429
g859
I31
ssS'ChildNodesTest'
p4430
(dp4431
g859
I32
ssS'ICMPClientTest'
p4432
(dp4433
g859
I26
ssS'ValidatorTest'
p4434
(dp4435
g859
I37
ssS'FPETest'
p4436
(dp4437
g859
I40
ssS'WinRegistryTest'
p4438
(dp4439
g859
I27
ssS'DocumentTypeTest'
p4440
(dp4441
g859
I36
ssS'OptionTest'
p4442
(dp4443
g859
I137
ssS'MulticastSocketTest'
p4444
(dp4445
g859
I9
ssS'LRUCacheTest'
p4446
(dp4447
g859
I105
ssS'NamedMutexTest'
p4448
(dp4449
g859
I21
ssS'MailStreamTest'
p4450
(dp4451
g859
I13
ssS'NDCTest'
p4452
(dp4453
g859
I22
ssS'MD2EngineTest'
p4454
(dp4455
g859
I16
ssS'DateTimeTest'
p4456
(dp4457
g859
I415
ssS'IPAddressTest'
p4458
(dp4459
g859
I233
ssS'MD4EngineTest'
p4460
(dp4461
g859
I16
ssS'SHA1EngineTest'
p4462
(dp4463
g859
I10
ssS'MapConfigurationTest'
p4464
(dp4465
g859
I5
ssS'HTTPClientSessionTest'
p4466
(dp4467
g859
I159
ssS'NamePoolTest'
p4468
(dp4469
g859
I12
ssS'DigestStreamTest'
p4470
(dp4471
g859
I23
ssS'NamedTuplesTest'
p4472
(dp4473
g859
I943
ssS'DialogSocketTest'
p4474
(dp4475
g859
I32
ssS'HexBinaryTest'
p4476
(dp4477
g859
I109
ssS'XMLConfigurationTest'
p4478
(dp4479
g859
I40
ssS'UUIDTest'
p4480
(dp4481
g859
I74
ssS'CoreTest'
p4482
(dp4483
g859
I29
ssS'ThreadLocalTest'
p4484
(dp4485
g859
I22
ssS'HTTPRequestTest'
p4486
(dp4487
g859
I93
ssS'ConfigurationViewTest'
p4488
(dp4489
g859
I46
ssS'FIFOEventTest'
p4490
(dp4491
g859
I199
ssS'DynamicFactoryTest'
p4492
(dp4493
g859
I17
ssS'TextEncodingTest'
p4494
(dp4495
g859
I9
ssS'HTTPSStreamFactoryTest'
p4496
(dp4497
g859
I70
ssS'TaskTest'
p4498
(dp4499
g859
I39
ssS'ByteOrderTest'
p4500
(dp4501
g859
I331
ssS'NameTest'
p4502
(dp4503
g859
I80
ssS'SMTPClientSessionTest'
p4504
(dp4505
g859
I95
ssS'DocumentTest'
p4506
(dp4507
g859
I138
ssS'SharedMemoryTest'
p4508
(dp4509
g859
I25
ssS'RandomTest'
p4510
(dp4511
g859
I80
ssS'DatagramSocketTest'
p4512
(dp4513
g859
I34
ssS'SocketTest'
p4514
(dp4515
g859
I217
ssS'LogStreamTest'
p4516
(dp4517
g859
I12
ssS'PropertyFileConfigurationTest'
p4518
(dp4519
g859
I32
ssS'GlobTest'
p4520
(dp4521
g859
I283
ssS'NamespaceSupportTest'
p4522
(dp4523
g859
I112
ssS'LoggerTest'
p4524
(dp4525
g859
I139
ssS'ChannelTest'
p4526
(dp4527
g859
I34
ssS'FileTest'
p4528
(dp4529
g859
I210
ssS'SemaphoreTest'
p4530
(dp4531
g859
I27
ssS'NameValueCollectionTest'
p4532
(dp4533
g859
I44
ssS'IniFileConfigurationTest'
p4534
(dp4535
g859
I25
ssS'SystemConfigurationTest'
p4536
(dp4537
g859
I26
ssS'HMACEngineTest'
p4538
(dp4539
g859
I18
ssS'HTTPServerTest'
p4540
(dp4541
g859
I294
ssS'PatternFormatterTest'
p4542
(dp4543
g859
I37
ssS'StreamCopierTest'
p4544
(dp4545
g859
I54
ssS'HTTPStreamFactoryTest'
p4546
(dp4547
g859
I39
ssS'NumberFormatterTest'
p4548
(dp4549
g859
I54
ssS'URIStreamOpenerTest'
p4550
(dp4551
g859
I97
ssS'HelpFormatterTest'
p4552
(dp4553
g859
I19
ssS'TextIteratorTest'
p4554
(dp4555
g859
I118
ssS'TimezoneTest'
p4556
(dp4557
g859
I8
ssS'ExpireCacheTest'
p4558
(dp4559
g859
I95
ssS'RegularExpressionTest'
p4560
(dp4561
g859
I134
ssS'HTTPResponseTest'
p4562
(dp4563
g859
I84
ssS'LinearHashTableTest'
p4564
(dp4565
g859
I204
ssS'SAXParserTest'
p4566
(dp4567
g859
I119
ssS'MemoryPoolTest'
p4568
(dp4569
g859
I24
ssS'SocketAddressTest'
p4570
(dp4571
g859
I31
ssS'ManifestTest'
p4572
(dp4573
g859
I44
ssS'FileStreamTest'
p4574
(dp4575
g859
I150
ssS'NodeAppenderTest'
p4576
(dp4577
g859
I55
ssS'AutoPtrTest'
p4578
(dp4579
g859
I63
ssS'TimerTest'
p4580
(dp4581
g859
I28
ssS'HashTableTest'
p4582
(dp4583
g859
I99
ssS'SharedPtrTest'
p4584
(dp4585
g859
I73
ssS'TypeListTest'
p4586
(dp4587
g859
I174
ssS'CountingStreamTest'
p4588
(dp4589
g859
I41
ssS'ActivityTest'
p4590
(dp4591
g859
I9
ssS'MediaTypeTest'
p4592
(dp4593
g859
I31
ssS'URITest'
p4594
(dp4595
g859
I534
ssS'FilesystemConfigurationTest'
p4596
(dp4597
g859
I33
ssS'FileChannelTest'
p4598
(dp4599
g859
I249
ssS'PriorityEventTest'
p4600
(dp4601
g859
I243
ssS'ICMPSocketTest'
p4602
(dp4603
g859
I11
sssS'EagerTest'
p4604
(dp4605
S'EagerTest38'
p4606
(dp4607
S'PTMI'
p4608
I8
ssS'EagerTest39'
p4609
(dp4610
g4608
I7
ssS'EagerTest58'
p4611
(dp4612
g4608
I7
ssS'EagerTest59'
p4613
(dp4614
g4608
I8
ssS'EagerTest62'
p4615
(dp4616
g4608
I7
ssS'EagerTest32'
p4617
(dp4618
g4608
I8
ssS'EagerTest33'
p4619
(dp4620
g4608
I7
ssS'EagerTest30'
p4621
(dp4622
g4608
I7
ssS'EagerTest31'
p4623
(dp4624
g4608
I7
ssS'EagerTest36'
p4625
(dp4626
g4608
I7
ssS'EagerTest37'
p4627
(dp4628
g4608
I11
ssS'EagerTest34'
p4629
(dp4630
g4608
I9
ssS'EagerTest35'
p4631
(dp4632
g4608
I8
ssS'EagerTest10'
p4633
(dp4634
g4608
I9
ssS'EagerTest11'
p4635
(dp4636
g4608
I7
ssS'EagerTest12'
p4637
(dp4638
g4608
I9
ssS'EagerTest13'
p4639
(dp4640
g4608
I10
ssS'EagerTest14'
p4641
(dp4642
g4608
I8
ssS'EagerTest15'
p4643
(dp4644
g4608
I8
ssS'EagerTest16'
p4645
(dp4646
g4608
I12
ssS'EagerTest17'
p4647
(dp4648
g4608
I8
ssS'EagerTest18'
p4649
(dp4650
g4608
I7
ssS'EagerTest19'
p4651
(dp4652
g4608
I7
ssS'EagerTest69'
p4653
(dp4654
g4608
I10
ssS'EagerTest51'
p4655
(dp4656
g4608
I12
ssS'EagerTest67'
p4657
(dp4658
g4608
I7
ssS'EagerTest66'
p4659
(dp4660
g4608
I12
ssS'EagerTest54'
p4661
(dp4662
g4608
I7
ssS'EagerTest50'
p4663
(dp4664
g4608
I10
ssS'EagerTest55'
p4665
(dp4666
g4608
I8
ssS'EagerTest68'
p4667
(dp4668
g4608
I8
ssS'EagerTest56'
p4669
(dp4670
g4608
I8
ssS'EagerTest52'
p4671
(dp4672
g4608
I16
ssS'EagerTest61'
p4673
(dp4674
g4608
I8
ssS'EagerTest60'
p4675
(dp4676
g4608
I10
ssS'EagerTest63'
p4677
(dp4678
g4608
I8
ssS'EagerTest57'
p4679
(dp4680
g4608
I9
ssS'EagerTest65'
p4681
(dp4682
g4608
I8
ssS'EagerTest64'
p4683
(dp4684
g4608
I7
ssS'EagerTest49'
p4685
(dp4686
g4608
I26
ssS'EagerTest48'
p4687
(dp4688
g4608
I9
ssS'EagerTest47'
p4689
(dp4690
g4608
I7
ssS'EagerTest46'
p4691
(dp4692
g4608
I11
ssS'EagerTest45'
p4693
(dp4694
g4608
I8
ssS'EagerTest44'
p4695
(dp4696
g4608
I7
ssS'EagerTest43'
p4697
(dp4698
g4608
I9
ssS'EagerTest42'
p4699
(dp4700
g4608
I8
ssS'EagerTest41'
p4701
(dp4702
g4608
I7
ssS'EagerTest40'
p4703
(dp4704
g4608
I7
ssS'EagerTest25'
p4705
(dp4706
g4608
I8
ssS'EagerTest24'
p4707
(dp4708
g4608
I9
ssS'EagerTest27'
p4709
(dp4710
g4608
I7
ssS'EagerTest26'
p4711
(dp4712
g4608
I10
ssS'EagerTest21'
p4713
(dp4714
g4608
I7
ssS'EagerTest20'
p4715
(dp4716
g4608
I8
ssS'EagerTest23'
p4717
(dp4718
g4608
I7
ssS'EagerTest22'
p4719
(dp4720
g4608
I10
ssS'EagerTest53'
p4721
(dp4722
g4608
I8
ssS'EagerTest29'
p4723
(dp4724
g4608
I7
ssS'EagerTest28'
p4725
(dp4726
g4608
I7
ssS'EagerTest2'
p4727
(dp4728
g4608
I18
ssS'EagerTest3'
p4729
(dp4730
g4608
I7
ssS'EagerTest0'
p4731
(dp4732
g4608
I7
ssS'EagerTest1'
p4733
(dp4734
g4608
I10
ssS'EagerTest6'
p4735
(dp4736
g4608
I8
ssS'EagerTest7'
p4737
(dp4738
g4608
I9
ssS'EagerTest4'
p4739
(dp4740
g4608
I7
ssS'EagerTest5'
p4741
(dp4742
g4608
I8
ssS'EagerTest8'
p4743
(dp4744
g4608
I12
ssS'EagerTest9'
p4745
(dp4746
g4608
I21
sssS'DuplicatedCode'
p4747
(dp4748
S'DuplicatedCode82'
p4749
(dp4750
S'ANrSL'
p4751
I16
ssS'DuplicatedCode83'
p4752
(dp4753
g4751
I4
ssS'DuplicatedCode80'
p4754
(dp4755
g4751
I9
ssS'DuplicatedCode81'
p4756
(dp4757
g4751
I10
ssS'DuplicatedCode86'
p4758
(dp4759
g4751
I8
ssS'DuplicatedCode87'
p4760
(dp4761
g4751
I12
ssS'DuplicatedCode84'
p4762
(dp4763
g4751
I8
ssS'DuplicatedCode85'
p4764
(dp4765
g4751
I8
ssS'DuplicatedCode88'
p4766
(dp4767
g4751
I24
ssS'DuplicatedCode89'
p4768
(dp4769
g4751
I7
ssS'DuplicatedCode104'
p4770
(dp4771
g4751
I30
ssS'DuplicatedCode108'
p4772
(dp4773
g4751
I15
ssS'DuplicatedCode109'
p4774
(dp4775
g4751
I13
ssS'DuplicatedCode105'
p4776
(dp4777
g4751
I49
ssS'DuplicatedCode102'
p4778
(dp4779
g4751
I24
ssS'DuplicatedCode103'
p4780
(dp4781
g4751
I10
ssS'DuplicatedCode100'
p4782
(dp4783
g4751
I16
ssS'DuplicatedCode188'
p4784
(dp4785
g4751
I38
ssS'DuplicatedCode189'
p4786
(dp4787
g4751
I6
ssS'DuplicatedCode186'
p4788
(dp4789
g4751
I22
ssS'DuplicatedCode187'
p4790
(dp4791
g4751
I9
ssS'DuplicatedCode184'
p4792
(dp4793
g4751
I12
ssS'DuplicatedCode101'
p4794
(dp4795
g4751
I5
ssS'DuplicatedCode182'
p4796
(dp4797
g4751
I10
ssS'DuplicatedCode183'
p4798
(dp4799
g4751
I30
ssS'DuplicatedCode180'
p4800
(dp4801
g4751
I37
ssS'DuplicatedCode181'
p4802
(dp4803
g4751
I8
ssS'DuplicatedCode1'
p4804
(dp4805
g4751
I7
ssS'DuplicatedCode0'
p4806
(dp4807
g4751
I7
ssS'DuplicatedCode3'
p4808
(dp4809
g4751
I10
ssS'DuplicatedCode2'
p4810
(dp4811
g4751
I6
ssS'DuplicatedCode5'
p4812
(dp4813
g4751
I19
ssS'DuplicatedCode4'
p4814
(dp4815
g4751
I17
ssS'DuplicatedCode7'
p4816
(dp4817
g4751
I7
ssS'DuplicatedCode6'
p4818
(dp4819
g4751
I9
ssS'DuplicatedCode9'
p4820
(dp4821
g4751
I6
ssS'DuplicatedCode8'
p4822
(dp4823
g4751
I39
ssS'DuplicatedCode95'
p4824
(dp4825
g4751
I14
ssS'DuplicatedCode94'
p4826
(dp4827
g4751
I10
ssS'DuplicatedCode97'
p4828
(dp4829
g4751
I46
ssS'DuplicatedCode96'
p4830
(dp4831
g4751
I10
ssS'DuplicatedCode91'
p4832
(dp4833
g4751
I5
ssS'DuplicatedCode90'
p4834
(dp4835
g4751
I6
ssS'DuplicatedCode93'
p4836
(dp4837
g4751
I20
ssS'DuplicatedCode92'
p4838
(dp4839
g4751
I94
ssS'DuplicatedCode133'
p4840
(dp4841
g4751
I28
ssS'DuplicatedCode132'
p4842
(dp4843
g4751
I11
ssS'DuplicatedCode131'
p4844
(dp4845
g4751
I26
ssS'DuplicatedCode130'
p4846
(dp4847
g4751
I19
ssS'DuplicatedCode99'
p4848
(dp4849
g4751
I21
ssS'DuplicatedCode98'
p4850
(dp4851
g4751
I26
ssS'DuplicatedCode135'
p4852
(dp4853
g4751
I8
ssS'DuplicatedCode134'
p4854
(dp4855
g4751
I16
ssS'DuplicatedCode19'
p4856
(dp4857
g4751
I42
ssS'DuplicatedCode18'
p4858
(dp4859
g4751
I8
ssS'DuplicatedCode15'
p4860
(dp4861
g4751
I18
ssS'DuplicatedCode14'
p4862
(dp4863
g4751
I6
ssS'DuplicatedCode17'
p4864
(dp4865
g4751
I21
ssS'DuplicatedCode16'
p4866
(dp4867
g4751
I15
ssS'DuplicatedCode11'
p4868
(dp4869
g4751
I6
ssS'DuplicatedCode10'
p4870
(dp4871
g4751
I23
ssS'DuplicatedCode13'
p4872
(dp4873
g4751
I17
ssS'DuplicatedCode12'
p4874
(dp4875
g4751
I9
ssS'DuplicatedCode68'
p4876
(dp4877
g4751
I6
ssS'DuplicatedCode69'
p4878
(dp4879
g4751
I45
ssS'DuplicatedCode128'
p4880
(dp4881
g4751
I13
ssS'DuplicatedCode129'
p4882
(dp4883
g4751
I8
ssS'DuplicatedCode60'
p4884
(dp4885
g4751
I8
ssS'DuplicatedCode61'
p4886
(dp4887
g4751
I13
ssS'DuplicatedCode62'
p4888
(dp4889
g4751
I6
ssS'DuplicatedCode63'
p4890
(dp4891
g4751
I20
ssS'DuplicatedCode64'
p4892
(dp4893
g4751
I10
ssS'DuplicatedCode65'
p4894
(dp4895
g4751
I69
ssS'DuplicatedCode66'
p4896
(dp4897
g4751
I43
ssS'DuplicatedCode67'
p4898
(dp4899
g4751
I9
ssS'DuplicatedCode79'
p4900
(dp4901
g4751
I9
ssS'DuplicatedCode78'
p4902
(dp4903
g4751
I21
ssS'DuplicatedCode73'
p4904
(dp4905
g4751
I9
ssS'DuplicatedCode72'
p4906
(dp4907
g4751
I10
ssS'DuplicatedCode71'
p4908
(dp4909
g4751
I6
ssS'DuplicatedCode70'
p4910
(dp4911
g4751
I20
ssS'DuplicatedCode77'
p4912
(dp4913
g4751
I9
ssS'DuplicatedCode76'
p4914
(dp4915
g4751
I5
ssS'DuplicatedCode75'
p4916
(dp4917
g4751
I24
ssS'DuplicatedCode74'
p4918
(dp4919
g4751
I8
ssS'DuplicatedCode159'
p4920
(dp4921
g4751
I9
ssS'DuplicatedCode158'
p4922
(dp4923
g4751
I11
ssS'DuplicatedCode151'
p4924
(dp4925
g4751
I83
ssS'DuplicatedCode150'
p4926
(dp4927
g4751
I38
ssS'DuplicatedCode153'
p4928
(dp4929
g4751
I81
ssS'DuplicatedCode152'
p4930
(dp4931
g4751
I132
ssS'DuplicatedCode155'
p4932
(dp4933
g4751
I13
ssS'DuplicatedCode154'
p4934
(dp4935
g4751
I8
ssS'DuplicatedCode157'
p4936
(dp4937
g4751
I8
ssS'DuplicatedCode156'
p4938
(dp4939
g4751
I11
ssS'DuplicatedCode185'
p4940
(dp4941
g4751
I36
ssS'DuplicatedCode122'
p4942
(dp4943
g4751
I9
ssS'DuplicatedCode48'
p4944
(dp4945
g4751
I22
ssS'DuplicatedCode49'
p4946
(dp4947
g4751
I13
ssS'DuplicatedCode46'
p4948
(dp4949
g4751
I8
ssS'DuplicatedCode47'
p4950
(dp4951
g4751
I26
ssS'DuplicatedCode44'
p4952
(dp4953
g4751
I10
ssS'DuplicatedCode45'
p4954
(dp4955
g4751
I13
ssS'DuplicatedCode42'
p4956
(dp4957
g4751
I17
ssS'DuplicatedCode43'
p4958
(dp4959
g4751
I12
ssS'DuplicatedCode40'
p4960
(dp4961
g4751
I9
ssS'DuplicatedCode41'
p4962
(dp4963
g4751
I25
ssS'DuplicatedCode148'
p4964
(dp4965
g4751
I11
ssS'DuplicatedCode124'
p4966
(dp4967
g4751
I13
ssS'DuplicatedCode138'
p4968
(dp4969
g4751
I18
ssS'DuplicatedCode149'
p4970
(dp4971
g4751
I33
ssS'DuplicatedCode125'
p4972
(dp4973
g4751
I44
ssS'DuplicatedCode142'
p4974
(dp4975
g4751
I6
ssS'DuplicatedCode143'
p4976
(dp4977
g4751
I13
ssS'DuplicatedCode140'
p4978
(dp4979
g4751
I18
ssS'DuplicatedCode141'
p4980
(dp4981
g4751
I14
ssS'DuplicatedCode146'
p4982
(dp4983
g4751
I14
ssS'DuplicatedCode126'
p4984
(dp4985
g4751
I4
ssS'DuplicatedCode144'
p4986
(dp4987
g4751
I32
ssS'DuplicatedCode145'
p4988
(dp4989
g4751
I18
ssS'DuplicatedCode127'
p4990
(dp4991
g4751
I15
ssS'DuplicatedCode106'
p4992
(dp4993
g4751
I25
ssS'DuplicatedCode120'
p4994
(dp4995
g4751
I10
ssS'DuplicatedCode121'
p4996
(dp4997
g4751
I17
ssS'DuplicatedCode51'
p4998
(dp4999
g4751
I11
ssS'DuplicatedCode50'
p5000
(dp5001
g4751
I17
ssS'DuplicatedCode53'
p5002
(dp5003
g4751
I33
ssS'DuplicatedCode52'
p5004
(dp5005
g4751
I21
ssS'DuplicatedCode55'
p5006
(dp5007
g4751
I26
ssS'DuplicatedCode54'
p5008
(dp5009
g4751
I42
ssS'DuplicatedCode57'
p5010
(dp5011
g4751
I20
ssS'DuplicatedCode56'
p5012
(dp5013
g4751
I37
ssS'DuplicatedCode59'
p5014
(dp5015
g4751
I20
ssS'DuplicatedCode58'
p5016
(dp5017
g4751
I16
ssS'DuplicatedCode123'
p5018
(dp5019
g4751
I16
ssS'DuplicatedCode107'
p5020
(dp5021
g4751
I21
ssS'DuplicatedCode147'
p5022
(dp5023
g4751
I7
ssS'DuplicatedCode179'
p5024
(dp5025
g4751
I25
ssS'DuplicatedCode178'
p5026
(dp5027
g4751
I24
ssS'DuplicatedCode177'
p5028
(dp5029
g4751
I59
ssS'DuplicatedCode176'
p5030
(dp5031
g4751
I18
ssS'DuplicatedCode175'
p5032
(dp5033
g4751
I15
ssS'DuplicatedCode174'
p5034
(dp5035
g4751
I19
ssS'DuplicatedCode173'
p5036
(dp5037
g4751
I12
ssS'DuplicatedCode172'
p5038
(dp5039
g4751
I10
ssS'DuplicatedCode171'
p5040
(dp5041
g4751
I14
ssS'DuplicatedCode170'
p5042
(dp5043
g4751
I12
ssS'DuplicatedCode160'
p5044
(dp5045
g4751
I14
ssS'DuplicatedCode161'
p5046
(dp5047
g4751
I13
ssS'DuplicatedCode162'
p5048
(dp5049
g4751
I8
ssS'DuplicatedCode163'
p5050
(dp5051
g4751
I6
ssS'DuplicatedCode164'
p5052
(dp5053
g4751
I9
ssS'DuplicatedCode165'
p5054
(dp5055
g4751
I9
ssS'DuplicatedCode166'
p5056
(dp5057
g4751
I28
ssS'DuplicatedCode167'
p5058
(dp5059
g4751
I11
ssS'DuplicatedCode168'
p5060
(dp5061
g4751
I21
ssS'DuplicatedCode169'
p5062
(dp5063
g4751
I9
ssS'DuplicatedCode139'
p5064
(dp5065
g4751
I6
ssS'DuplicatedCode24'
p5066
(dp5067
g4751
I16
ssS'DuplicatedCode25'
p5068
(dp5069
g4751
I26
ssS'DuplicatedCode26'
p5070
(dp5071
g4751
I24
ssS'DuplicatedCode27'
p5072
(dp5073
g4751
I12
ssS'DuplicatedCode20'
p5074
(dp5075
g4751
I10
ssS'DuplicatedCode21'
p5076
(dp5077
g4751
I11
ssS'DuplicatedCode22'
p5078
(dp5079
g4751
I17
ssS'DuplicatedCode23'
p5080
(dp5081
g4751
I7
ssS'DuplicatedCode28'
p5082
(dp5083
g4751
I10
ssS'DuplicatedCode29'
p5084
(dp5085
g4751
I19
ssS'DuplicatedCode205'
p5086
(dp5087
g4751
I9
ssS'DuplicatedCode204'
p5088
(dp5089
g4751
I6
ssS'DuplicatedCode206'
p5090
(dp5091
g4751
I6
ssS'DuplicatedCode201'
p5092
(dp5093
g4751
I33
ssS'DuplicatedCode200'
p5094
(dp5095
g4751
I11
ssS'DuplicatedCode203'
p5096
(dp5097
g4751
I17
ssS'DuplicatedCode202'
p5098
(dp5099
g4751
I51
ssS'DuplicatedCode115'
p5100
(dp5101
g4751
I12
ssS'DuplicatedCode114'
p5102
(dp5103
g4751
I9
ssS'DuplicatedCode117'
p5104
(dp5105
g4751
I12
ssS'DuplicatedCode116'
p5106
(dp5107
g4751
I20
ssS'DuplicatedCode111'
p5108
(dp5109
g4751
I6
ssS'DuplicatedCode110'
p5110
(dp5111
g4751
I24
ssS'DuplicatedCode113'
p5112
(dp5113
g4751
I25
ssS'DuplicatedCode112'
p5114
(dp5115
g4751
I11
ssS'DuplicatedCode137'
p5116
(dp5117
g4751
I37
ssS'DuplicatedCode119'
p5118
(dp5119
g4751
I6
ssS'DuplicatedCode118'
p5120
(dp5121
g4751
I7
ssS'DuplicatedCode136'
p5122
(dp5123
g4751
I14
ssS'DuplicatedCode37'
p5124
(dp5125
g4751
I13
ssS'DuplicatedCode36'
p5126
(dp5127
g4751
I48
ssS'DuplicatedCode35'
p5128
(dp5129
g4751
I5
ssS'DuplicatedCode34'
p5130
(dp5131
g4751
I21
ssS'DuplicatedCode33'
p5132
(dp5133
g4751
I21
ssS'DuplicatedCode32'
p5134
(dp5135
g4751
I4
ssS'DuplicatedCode31'
p5136
(dp5137
g4751
I63
ssS'DuplicatedCode30'
p5138
(dp5139
g4751
I27
ssS'DuplicatedCode39'
p5140
(dp5141
g4751
I23
ssS'DuplicatedCode38'
p5142
(dp5143
g4751
I128
ssS'DuplicatedCode199'
p5144
(dp5145
g4751
I19
ssS'DuplicatedCode198'
p5146
(dp5147
g4751
I13
ssS'DuplicatedCode195'
p5148
(dp5149
g4751
I24
ssS'DuplicatedCode194'
p5150
(dp5151
g4751
I19
ssS'DuplicatedCode197'
p5152
(dp5153
g4751
I12
ssS'DuplicatedCode196'
p5154
(dp5155
g4751
I10
ssS'DuplicatedCode191'
p5156
(dp5157
g4751
I34
ssS'DuplicatedCode190'
p5158
(dp5159
g4751
I22
ssS'DuplicatedCode193'
p5160
(dp5161
g4751
I15
ssS'DuplicatedCode192'
p5162
(dp5163
g4751
I8
sssS'GeneralFixture'
p5164
(dp5165
S'GeneralFixture4'
p5166
(dp5167
S'NFPT'
p5168
I0
sS'NOBU'
p5169
I0
sS'NFOB'
p5170
I19
ssS'GeneralFixture5'
p5171
(dp5172
g5168
I1
sg5169
I2
sg5170
I8
ssS'GeneralFixture2'
p5173
(dp5174
g5168
I1
sg5169
I2
sg5170
I8
ssS'GeneralFixture3'
p5175
(dp5176
g5168
I1
sg5169
I8
sg5170
I2
ssS'GeneralFixture0'
p5177
(dp5178
g5168
I1
sg5169
I2
sg5170
I8
ssS'GeneralFixture1'
p5179
(dp5180
g5168
I1
sg5169
I0
sg5170
I9
sssS'IndirectTest'
p5181
(dp5182
sS'testfixture'
p5183
(dp5184
S'LayeredConfigurationTest.tearDown()'
p5185
(dp5186
g859
I0
ssS'StringTokenizerTest.tearDown()'
p5187
(dp5188
g859
I0
ssS'HTTPCookieTest.tearDown()'
p5189
(dp5190
g859
I0
ssS'IniFileConfigurationTest.tearDown()'
p5191
(dp5192
g859
I0
ssS'URITest.tearDown()'
p5193
(dp5194
g859
I0
ssS'HTTPCredentialsTest.tearDown()'
p5195
(dp5196
g859
I0
ssS'AttributesImplTest.tearDown()'
p5197
(dp5198
g859
I0
ssS'DynamicAnyTest.tearDown()'
p5199
(dp5200
g859
I0
ssS'HashMapTest.tearDown()'
p5201
(dp5202
g859
I0
ssS'PatternFormatterTest.tearDown()'
p5203
(dp5204
g859
I0
ssS'RegularExpressionTest.tearDown()'
p5205
(dp5206
g859
I0
ssS'StopwatchTest.tearDown()'
p5207
(dp5208
g859
I0
ssS'ManifestTest.tearDown()'
p5209
(dp5210
g859
I0
ssS'SMTPClientSessionTest.tearDown()'
p5211
(dp5212
g859
I0
ssS'TuplesTest.tearDown()'
p5213
(dp5214
g859
I0
ssS'NullStreamTest.tearDown()'
p5215
(dp5216
g859
I0
ssS'OptionSetTest.tearDown()'
p5217
(dp5218
g859
I0
ssS'AnyTest.tearDown()'
p5219
(dp5220
g859
I0
ssS'HelpFormatterTest.tearDown()'
p5221
(dp5222
g859
I0
ssS'DocumentTest.tearDown()'
p5223
(dp5224
g859
I0
ssS'SharedLibraryTest.tearDown()'
p5225
(dp5226
g859
I0
ssS'SocketStreamTest.tearDown()'
p5227
(dp5228
g859
I0
ssS'ChildNodesTest.tearDown()'
p5229
(dp5230
g859
I0
ssS'URIStreamOpenerTest.tearDown()'
p5231
(dp5232
g859
I0
ssS'FileTest.tearDown()'
p5233
(dp5234
g859
I2
ssS'HTTPSServerTest.tearDown()'
p5235
(dp5236
g859
I10
ssS'TeeStreamTest.tearDown()'
p5237
(dp5238
g859
I0
ssS'NamedEventTest.tearDown()'
p5239
(dp5240
g859
I0
ssS'QuotedPrintableTest.tearDown()'
p5241
(dp5242
g859
I0
ssS'HTTPSClientSessionTest.tearDown()'
p5243
(dp5244
g859
I10
ssS'MailStreamTest.tearDown()'
p5245
(dp5246
g859
I0
ssS'ICMPSocketTest.tearDown()'
p5247
(dp5248
g859
I0
ssS'PriorityEventTest.tearDown()'
p5249
(dp5250
g859
I0
ssS'DigestStreamTest.tearDown()'
p5251
(dp5252
g859
I0
ssS'ActivityTest.tearDown()'
p5253
(dp5254
g859
I0
ssS'MultipartReaderTest.tearDown()'
p5255
(dp5256
g859
I0
ssS'SAXParserTest.tearDown()'
p5257
(dp5258
g859
I0
ssS'DialogSocketTest.tearDown()'
p5259
(dp5260
g859
I0
ssS'TextIteratorTest.tearDown()'
p5261
(dp5262
g859
I0
ssS'UUIDTest.tearDown()'
p5263
(dp5264
g859
I0
ssS'LoggerTest.tearDown()'
p5265
(dp5266
g859
I0
ssS'HashSetTest.tearDown()'
p5267
(dp5268
g859
I0
ssS'HMACEngineTest.tearDown()'
p5269
(dp5270
g859
I0
ssS'LRUCacheTest.tearDown()'
p5271
(dp5272
g859
I0
ssS'OptionProcessorTest.tearDown()'
p5273
(dp5274
g859
I0
ssS'CoreTest.tearDown()'
p5275
(dp5276
g859
I0
ssS'ElementTest.tearDown()'
p5277
(dp5278
g859
I0
ssS'BinaryReaderWriterTest.tearDown()'
p5279
(dp5280
g859
I0
ssS'NotificationCenterTest.tearDown()'
p5281
(dp5282
g859
I0
ssS'LoggingFactoryTest.tearDown()'
p5283
(dp5284
g859
I0
ssS'StreamTokenizerTest.tearDown()'
p5285
(dp5286
g859
I0
ssS'WinRegistryTest.tearDown()'
p5287
(dp5288
g859
I0
ssS'MessageHeaderTest.tearDown()'
p5289
(dp5290
g859
I0
ssS'TextConverterTest.tearDown()'
p5291
(dp5292
g859
I0
ssS'ConfigurationViewTest.tearDown()'
p5293
(dp5294
g859
I0
ssS'StreamCopierTest.tearDown()'
p5295
(dp5296
g859
I0
ssS'AbstractConfigurationTest.tearDown()'
p5297
(dp5298
g859
I0
ssS'DateTimeFormatterTest.tearDown()'
p5299
(dp5300
g859
I0
ssS'MailMessageTest.tearDown()'
p5301
(dp5302
g859
I0
ssS'DataTest.tearDown()'
p5303
(dp5304
g859
I10
ssS'NotificationQueueTest.tearDown()'
p5305
(dp5306
g859
I0
ssS'HTTPStreamFactoryTest.tearDown()'
p5307
(dp5308
g859
I0
ssS'SessionPoolTest.tearDown()'
p5309
(dp5310
g859
I10
ssS'FilesystemConfigurationTest.tearDown()'
p5311
(dp5312
g859
I0
ssS'StreamConverterTest.tearDown()'
p5313
(dp5314
g859
I0
ssS'SQLiteTest.tearDown()'
p5315
(dp5316
g859
I10
ssS'POP3ClientSessionTest.tearDown()'
p5317
(dp5318
g859
I0
ssS'PropertyFileConfigurationTest.tearDown()'
p5319
(dp5320
g859
I0
ssS'RawSocketTest.tearDown()'
p5321
(dp5322
g859
I0
ssS'ValidatorTest.tearDown()'
p5323
(dp5324
g859
I0
ssS'ActiveMethodTest.tearDown()'
p5325
(dp5326
g859
I0
ssS'LocalDateTimeTest.tearDown()'
p5327
(dp5328
g859
I0
ssS'TimerTest.tearDown()'
p5329
(dp5330
g859
I0
ssS'FormatTest.tearDown()'
p5331
(dp5332
g859
I0
ssS'SharedPtrTest.tearDown()'
p5333
(dp5334
g859
I0
ssS'PathTest.tearDown()'
p5335
(dp5336
g859
I0
ssS'CountingStreamTest.tearDown()'
p5337
(dp5338
g859
I0
ssS'NumberFormatterTest.tearDown()'
p5339
(dp5340
g859
I0
ssS'DocumentTypeTest.tearDown()'
p5341
(dp5342
g859
I0
ssS'FileChannelTest.tearDown()'
p5343
(dp5344
g859
I0
ssS'ExpireLRUCacheTest.tearDown()'
p5345
(dp5346
g859
I0
ssS'SocketReactorTest.tearDown()'
p5347
(dp5348
g859
I0
ssS'ConditionTest.tearDown()'
p5349
(dp5350
g859
I0
ssS'DateTimeTest.tearDown()'
p5351
(dp5352
g859
I0
ssS'NamePoolTest.tearDown()'
p5353
(dp5354
g859
I0
ssS'NamedMutexTest.tearDown()'
p5355
(dp5356
g859
I0
ssS'MapConfigurationTest.tearDown()'
p5357
(dp5358
g859
I0
ssS'MultipartWriterTest.tearDown()'
p5359
(dp5360
g859
I0
ssS'ActiveDispatcherTest.tearDown()'
p5361
(dp5362
g859
I0
ssS'ThreadTest.tearDown()'
p5363
(dp5364
g859
I0
ssS'LoggingConfiguratorTest.tearDown()'
p5365
(dp5366
g859
I0
ssS'HexBinaryTest.tearDown()'
p5367
(dp5368
g859
I0
ssS'RandomTest.tearDown()'
p5369
(dp5370
g859
I0
ssS'RandomStreamTest.tearDown()'
p5371
(dp5372
g859
I0
ssS'TreeWalkerTest.tearDown()'
p5373
(dp5374
g859
I0
ssS'SemaphoreTest.tearDown()'
p5375
(dp5376
g859
I0
ssS'SyslogTest.tearDown()'
p5377
(dp5378
g859
I0
ssS'ByteOrderTest.tearDown()'
p5379
(dp5380
g859
I0
ssS'FileStreamTest.tearDown()'
p5381
(dp5382
g859
I0
ssS'SocketTest.tearDown()'
p5383
(dp5384
g859
I0
ssS'LoggingRegistryTest.tearDown()'
p5385
(dp5386
g859
I0
ssS'HTTPServerTest.tearDown()'
p5387
(dp5388
g859
I0
ssS'HashTableTest.tearDown()'
p5389
(dp5390
g859
I0
ssS'NamedTuplesTest.tearDown()'
p5391
(dp5392
g859
I0
ssS'SystemConfigurationTest.tearDown()'
p5393
(dp5394
g859
I0
ssS'ZLibTest.tearDown()'
p5395
(dp5396
g859
I0
ssS'UUIDGeneratorTest.tearDown()'
p5397
(dp5398
g859
I0
ssS'AutoReleasePoolTest.tearDown()'
p5399
(dp5400
g859
I0
ssS'NodeTest.tearDown()'
p5401
(dp5402
g859
I0
ssS'UniqueExpireLRUCacheTest.tearDown()'
p5403
(dp5404
g859
I0
ssS'GlobTest.tearDown()'
p5405
(dp5406
g859
I0
ssS'DatagramSocketTest.tearDown()'
p5407
(dp5408
g859
I0
ssS'LogStreamTest.tearDown()'
p5409
(dp5410
g859
I0
ssS'TimestampTest.tearDown()'
p5411
(dp5412
g859
I0
ssS'SocketAddressTest.tearDown()'
p5413
(dp5414
g859
I0
ssS'DynamicFactoryTest.tearDown()'
p5415
(dp5416
g859
I0
ssS'HTTPRequestTest.tearDown()'
p5417
(dp5418
g859
I0
ssS'HTTPResponseTest.tearDown()'
p5419
(dp5420
g859
I0
ssS'AutoPtrTest.tearDown()'
p5421
(dp5422
g859
I0
ssS'LinearHashTableTest.tearDown()'
p5423
(dp5424
g859
I0
ssS'ODBCTest.tearDown()'
p5425
(dp5426
g859
I10
ssS'MD5EngineTest.tearDown()'
p5427
(dp5428
g859
I0
ssS'LineEndingConverterTest.tearDown()'
p5429
(dp5430
g859
I0
ssS'XMLWriterTest.tearDown()'
p5431
(dp5432
g859
I0
ssS'FTPStreamFactoryTest.tearDown()'
p5433
(dp5434
g859
I0
ssS'MediaTypeTest.tearDown()'
p5435
(dp5436
g859
I0
ssS'DNSTest.tearDown()'
p5437
(dp5438
g859
I0
ssS'NameValueCollectionTest.tearDown()'
p5439
(dp5440
g859
I0
ssS'ConfigurationMapperTest.tearDown()'
p5441
(dp5442
g859
I0
ssS'EventTest.tearDown()'
p5443
(dp5444
g859
I0
ssS'ProcessTest.tearDown()'
p5445
(dp5446
g859
I0
ssS'AsyncIOChannelTest.tearDown()'
p5447
(dp5448
g859
I0
ssS'HTTPClientSessionTest.tearDown()'
p5449
(dp5450
g859
I0
ssS'ClassLoaderTest.tearDown()'
p5451
(dp5452
g859
I0
ssS'WinConfigurationTest.tearDown()'
p5453
(dp5454
g859
I0
ssS'TimezoneTest.tearDown()'
p5455
(dp5456
g859
I0
ssS'UniqueExpireCacheTest.tearDown()'
p5457
(dp5458
g859
I0
ssS'ICMPClientTest.tearDown()'
p5459
(dp5460
g859
I4
ssS'NodeIteratorTest.tearDown()'
p5461
(dp5462
g859
I0
ssS'HTTPSStreamFactoryTest.tearDown()'
p5463
(dp5464
g859
I10
ssS'SharedMemoryTest.tearDown()'
p5465
(dp5466
g859
I0
ssS'ExpireCacheTest.tearDown()'
p5467
(dp5468
g859
I0
ssS'ParserWriterTest.tearDown()'
p5469
(dp5470
g859
I0
ssS'NamespaceSupportTest.tearDown()'
p5471
(dp5472
g859
I0
ssS'FPETest.tearDown()'
p5473
(dp5474
g859
I0
ssS'TextEncodingTest.tearDown()'
p5475
(dp5476
g859
I0
ssS'Base64Test.tearDown()'
p5477
(dp5478
g859
I0
ssS'HTMLFormTest.tearDown()'
p5479
(dp5480
g859
I0
ssS'SimpleHashTableTest.tearDown()'
p5481
(dp5482
g859
I0
ssS'UTF8StringTest.tearDown()'
p5483
(dp5484
g859
I0
ssS'TaskTest.tearDown()'
p5485
(dp5486
g859
I0
ssS'FTPClientSessionTest.tearDown()'
p5487
(dp5488
g859
I0
ssS'XMLConfigurationTest.tearDown()'
p5489
(dp5490
g859
I0
ssS'NameTest.tearDown()'
p5491
(dp5492
g859
I0
ssS'MD4EngineTest.tearDown()'
p5493
(dp5494
g859
I0
ssS'NDCTest.tearDown()'
p5495
(dp5496
g859
I0
ssS'BasicEventTest.tearDown()'
p5497
(dp5498
g859
I0
ssS'DateTimeParserTest.tearDown()'
p5499
(dp5500
g859
I0
ssS'FIFOEventTest.tearDown()'
p5501
(dp5502
g859
I0
ssS'SimpleFileChannelTest.tearDown()'
p5503
(dp5504
g859
I0
ssS'IPAddressTest.tearDown()'
p5505
(dp5506
g859
I0
ssS'TypeListTest.tearDown()'
p5507
(dp5508
g859
I0
ssS'SHA1EngineTest.tearDown()'
p5509
(dp5510
g859
I0
ssS'NetworkInterfaceTest.tearDown()'
p5511
(dp5512
g859
I0
ssS'OptionTest.tearDown()'
p5513
(dp5514
g859
I0
ssS'MD2EngineTest.tearDown()'
p5515
(dp5516
g859
I0
ssS'MemoryPoolTest.tearDown()'
p5517
(dp5518
g859
I0
ssS'TaskManagerTest.tearDown()'
p5519
(dp5520
g859
I0
ssS'MulticastSocketTest.tearDown()'
p5521
(dp5522
g859
I0
ssS'ThreadPoolTest.tearDown()'
p5523
(dp5524
g859
I0
ssS'NumberParserTest.tearDown()'
p5525
(dp5526
g859
I0
ssS'NodeAppenderTest.tearDown()'
p5527
(dp5528
g859
I0
ssS'TimespanTest.tearDown()'
p5529
(dp5530
g859
I0
ssS'ChannelTest.tearDown()'
p5531
(dp5532
g859
I0
ssS'ThreadLocalTest.tearDown()'
p5533
(dp5534
g859
I0
ssS'RWLockTest.tearDown()'
p5535
(dp5536
g859
I0
ssS'TextTest.tearDown()'
p5537
(dp5538
g859
I0
ssS'StringTest.tearDown()'
p5539
(dp5540
g859
I0
sssS'Translation'
p5541
(dp5542
g6
S'Lines of code'
p5543
sg3050
S'Number of toString invocations'
p5544
sg5169
S'Number of object uses'
p5545
sg3125
S'Number of Descriptionless assert invocations'
p5546
sg3126
S'Number of assert invocations'
p5547
sg5170
S'Number of fixture objects'
p5548
sg5168
S'Number of fixture production types'
p5549
sg4751
S'Average number of source lines'
p5550
sg4608
S'Number of production method invocations'
p5551
sg3885
S'Number of control structures'
p5552
sg859
S'Source Lines of Code'
p5553
sS'NPTU'
p5554
S'Number of production type uses'
p5555
ssS'testhelper'
p5556
(dp5557
S'NotificationCenterTest.handleTest(TestNotification*)'
p5558
(dp5559
g859
I3
ssS'ODBCTest.recreatePersonDateTable()'
p5560
(dp5561
g859
I10
ssS'TuplesTest.testTupleStrictWeak(T;T;T)'
p5562
(dp5563
g859
I10
ssS'ODBCTest.recreatePersonDateTimeTable()'
p5564
(dp5565
g859
I10
ssS'DynamicAnyTest.testGetIdxMustThrow(DynamicAny;std::vector<DynamicAny>::size_type)'
p5566
(dp5567
g859
I7
ssS'PriorityEventTest.onStaticSimple3(int)'
p5568
(dp5569
g859
I0
ssS'DynamicAnyTest.testGetIdx(Poco::DynamicAny;std::vector<Poco::DynamicAny>::size_type;T)'
p5570
(dp5571
g859
I10
ssS'SAXParserTest.parseMemory(XMLReader;int;std::string)'
p5572
(dp5573
g859
I8
ssS'ODBCTest.dsn()'
p5574
(dp5575
g859
I10
ssS'NotificationCenterTest.handleAuto(AutoPtr<Notification>)'
p5576
(dp5577
g859
I1
ssS'BasicEventTest.onComplex2(void*;Poco::EventArgs)'
p5578
(dp5579
g859
I1
ssS'FIFOEventTest.onSimple(void*;int)'
p5580
(dp5581
g859
I1
ssS'PriorityEventTest.onAsync(void*;int)'
p5582
(dp5583
g859
I2
ssS'BasicEventTest.onSimple(void*;int)'
p5584
(dp5585
g859
I1
ssS'ODBCTest.recreateVectorsTable()'
p5586
(dp5587
g859
I10
ssS'PriorityEventTest.onComplex(void*;Poco::EventArgs*&)'
p5588
(dp5589
g859
I1
ssS'NotificationCenterTest.handle2(Poco::Notification*)'
p5590
(dp5591
g859
I3
ssS'GlobTest.translatePaths(std::set<std::string>)'
p5592
(dp5593
g859
I8
ssS'FIFOEventTest.onConst2Complex(void*;int Poco::EventArgs*&)'
p5594
(dp5595
g859
I1
ssS'PriorityEventTest.getCount()'
p5596
(dp5597
g859
I1
ssS'FIFOEventTest.onConstSimple(void*;int)'
p5598
(dp5599
g859
I1
ssS'PriorityEventTest.onConstComplex(void*;int Poco::EventArgs*&)'
p5600
(dp5601
g859
I1
ssS'ODBCTest.bindValue(int)'
p5602
(dp5603
g859
I10
ssS'ODBCTest.recreateTuplesTable()'
p5604
(dp5605
g859
I10
ssS'ODBCTest.session()'
p5606
(dp5607
g859
I10
ssS'ODBCTest.executor()'
p5608
(dp5609
g859
I10
ssS'ThreadPoolTest.count()'
p5610
(dp5611
g859
I7
ssS'FIFOEventTest.onSimpleOther(void*;int)'
p5612
(dp5613
g859
I1
ssS'PriorityEventTest.onSimpleOther(void*;int)'
p5614
(dp5615
g859
I1
ssS'ICMPClientTest.onReply(void*;ICMPEventArgs)'
p5616
(dp5617
g859
I3
ssS'ODBCTest.recreatePersonBLOBTable()'
p5618
(dp5619
g859
I10
ssS'AsyncIOChannelTest.onFailed(void*;Poco::AsyncIOEvent)'
p5620
(dp5621
g859
I1
ssS'ICMPClientTest.onError(void*;ICMPEventArgs)'
p5622
(dp5623
g859
I3
ssS'ICMPClientTest.onEnd(void*;ICMPEventArgs)'
p5624
(dp5625
g859
I4
ssS'ODBCTest.recreateIntsTable()'
p5626
(dp5627
g859
I10
ssS'BasicEventTest.onComplex(void*;Poco::EventArgs*&)'
p5628
(dp5629
g859
I1
ssS'ODBCTest.recreateAnysTable()'
p5630
(dp5631
g859
I10
ssS'ODBCTest.pwd()'
p5632
(dp5633
g859
I10
ssS'PriorityEventTest.onConst2Complex(void*;int Poco::EventArgs*&)'
p5634
(dp5635
g859
I1
ssS'NotificationCenterTest.handle1(Poco::Notification*)'
p5636
(dp5637
g859
I3
ssS'BasicEventTest.onConst2Complex(void*;int Poco::EventArgs*&)'
p5638
(dp5639
g859
I1
ssS'PriorityEventTest.onStaticSimple(void*;int)'
p5640
(dp5641
g859
I2
ssS'BasicEventTest.onSimpleNoSender(int)'
p5642
(dp5643
g859
I1
ssS'ODBCTest.dbConnString()'
p5644
(dp5645
g859
I10
ssS'NotificationCenterTest.handle3(Poco::Notification*)'
p5646
(dp5647
g859
I3
ssS'ODBCTest.recreateMiscTable()'
p5648
(dp5649
g859
I10
ssS'BasicEventTest.getCount()'
p5650
(dp5651
g859
I1
ssS'PriorityEventTest.onConstSimple(void*;int)'
p5652
(dp5653
g859
I1
ssS'FIFOEventTest.getCount()'
p5654
(dp5655
g859
I1
ssS'DataTest.testRowStrictWeak(Row;Row;Row)'
p5656
(dp5657
g859
I10
ssS'ODBCTest.canConnect(std::string;std::string;std::string;std::string;std::string;std::string)'
p5658
(dp5659
g859
I10
ssS'DataTest.readFromBLOB(BinaryReader)'
p5660
(dp5661
g859
I10
ssS'AsyncIOChannelTest.reset()'
p5662
(dp5663
g859
I2
ssS'BasicEventTest.onConstSimple(void*;int)'
p5664
(dp5665
g859
I1
ssS'FileChannelTest.remove(std::string)'
p5666
(dp5667
g859
I12
ssS'ODBCTest.recreatePersonTable()'
p5668
(dp5669
g859
I10
ssS'SimpleFileChannelTest.remove(std::string)'
p5670
(dp5671
g859
I12
ssS'ODBCTest.recreateFloatsTable()'
p5672
(dp5673
g859
I10
ssS'BinaryReaderWriterTest.read(BinaryReader)'
p5674
(dp5675
g859
I70
ssS'TimerTest.onTimer(Timer)'
p5676
(dp5677
g859
I1
ssS'BasicEventTest.onAsync(void*;int)'
p5678
(dp5679
g859
I2
ssS'ODBCTest.uid()'
p5680
(dp5681
g859
I10
ssS'PriorityEventTest.onSimple(void*;int)'
p5682
(dp5683
g859
I1
ssS'ODBCTest.init(std::string;std::string;std::string;std::string;std::string;std::string)'
p5684
(dp5685
g859
I10
ssS'SharedMemoryTest.findDataFile(std::string)'
p5686
(dp5687
g859
I13
ssS'FileChannelTest.filename()'
p5688
(dp5689
g859
I4
ssS'PriorityEventTest.onComplex2(void*;Poco::EventArgs)'
p5690
(dp5691
g859
I1
ssS'ODBCTest.recreateLogTable()'
p5692
(dp5693
g859
I10
ssS'PriorityEventTest.onStaticSimple2(void*;int)'
p5694
(dp5695
g859
I2
ssS'FIFOEventTest.onComplex(void*;Poco::EventArgs*&)'
p5696
(dp5697
g859
I1
ssS'BasicEventTest.onStaticSimple(void*;int)'
p5698
(dp5699
g859
I2
ssS'FIFOEventTest.onConstComplex(void*;int Poco::EventArgs*&)'
p5700
(dp5701
g859
I1
ssS'ICMPClientTest.onBegin(void*;ICMPEventArgs)'
p5702
(dp5703
g859
I3
ssS'SAXParserTest.parse(XMLReader;int;std::string)'
p5704
(dp5705
g859
I9
ssS'SimpleFileChannelTest.filename()'
p5706
(dp5707
g859
I4
ssS'ODBCTest.recreateBoolTable()'
p5708
(dp5709
g859
I10
ssS'GlobTest.createFile(std::string)'
p5710
(dp5711
g859
I5
ssS'ODBCTest.recreatePersonTimeTable()'
p5712
(dp5713
g859
I10
ssS'ODBCTest.dropObject(std::string;std::string)'
p5714
(dp5715
g859
I10
ssS'NotificationQueueTest.work()'
p5716
(dp5717
g859
I9
ssS'BinaryReaderWriterTest.write(BinaryWriter)'
p5718
(dp5719
g859
I28
ssS'FIFOEventTest.onComplex2(void*;Poco::EventArgs)'
p5720
(dp5721
g859
I1
ssS'BasicEventTest.onStaticSimple2(void*;int)'
p5722
(dp5723
g859
I2
ssS'PriorityEventTest.onSimpleNoSender(int)'
p5724
(dp5725
g859
I1
ssS'BasicEventTest.onStaticSimple3(int)'
p5726
(dp5727
g859
I0
ssS'BasicEventTest.onSimpleOther(void*;int)'
p5728
(dp5729
g859
I1
ssS'AsyncIOChannelTest.onCompleted(void*;Poco::AsyncIOEvent)'
p5730
(dp5731
g859
I1
ssS'DataTest.writeToBLOB(BinaryWriter)'
p5732
(dp5733
g859
I10
ssS'FileChannelTest.rotation(TimeRotation)'
p5734
(dp5735
g859
I21
ssS'BasicEventTest.onConstComplex(void*;int Poco::EventArgs*&)'
p5736
(dp5737
g859
I1
ssS'ODBCTest.recreateStringsTable()'
p5738
(dp5739
g859
I10
ssS'FIFOEventTest.onAsync(void*;int)'
p5740
(dp5741
g859
I2
ssS'ODBCTest.recreateNullsTable(std::string)'
p5742
(dp5743
g859
I10
sss.