(dp1
S'testmessenger::ICQ::ICQCLI_RATESREQUESTPacketTest.testGetLength()'
p2
(lp3
(S'testmessenger/ICQ/ICQCLI_RATESREQUESTPacketTest.java'
I85
tp4
asS'testmessenger::ICQ::ICQCLI_REQROSTERPacketTest.tearDown()'
p5
(lp6
(S'testmessenger/ICQ/ICQCLI_REQROSTERPacketTest.java'
I60
tp7
asS'testmessenger::MSN::testMSNMessage.testGetProtocol()'
p8
(lp9
(S'testmessenger/MSN/testMSNMessage.java'
I49
tp10
asS'EmptyTest59'
p11
(lp12
(S'testmessenger/UtilsTest.java'
I97
tp13
asS'testmessenger::ICQ::ICQCLI_REQBUDDYPacketTest.testGetKindOfPacket()'
p14
(lp15
(S'testmessenger/ICQ/ICQCLI_REQBUDDYPacketTest.java'
I74
tp16
asS'EmptyTest57'
p17
(lp18
(S'testmessenger/ICQ/ICQCLI_CONTACTTest.java'
I75
tp19
asS'EmptyTest56'
p20
(lp21
(S'testmessenger/Yahoo/YahooSRV_LOGONPacketTest.java'
I33
tp22
asS'testmessenger::ICQ::ICQProtocolTest.testChangeStatus()'
p23
(lp24
(S'testmessenger/ICQ/ICQProtocolTest.java'
I111
tp25
asS'EmptyTest54'
p26
(lp27
(S'testmessenger/Yahoo/YahooContactTest.java'
I58
tp28
asS'EmptyTest53'
p29
(lp30
(S'testmessenger/ICQ/ICQCLI_ADDCONTACTPacketTest.java'
I86
tp31
asS'EmptyTest52'
p32
(lp33
(S'testmessenger/MSN/testMSNMessage.java'
I49
tp34
asS'EmptyTest51'
p35
(lp36
(S'testmessenger/ICQ/ICQProtocolTest.java'
I108
tp37
asS'EmptyTest50'
p38
(lp39
(S'testmessenger/ICQ/ICQProtocolTest.java'
I114
tp40
asS'testmessenger::ICQ::ICQCLI_ACKRATESPacketTest.setUp()'
p41
(lp42
(S'testmessenger/ICQ/ICQCLI_ACKRATESPacketTest.java'
I57
tp43
asS'testmessenger::MSN::MSNIncomingADDPacketTest.setUp()'
p44
(lp45
(S'testmessenger/MSN/MSNIncomingADDPacketTest.java'
I59
tp46
asS'testmessenger::ICQ::ICQSRV_COOKIEPacketTest.tearDown()'
p47
(lp48
(S'testmessenger/ICQ/ICQSRV_COOKIEPacketTest.java'
I92
tp49
asS'DuplicatedCode1'
p50
(lp51
(S'testmessenger/ICQ/ICQSRV_REPLYROSTERPacketTest.java'
p52
I86
I92
tp53
a(S'testmessenger/ICQ/ICQSRV_REPLYROSTERPacketTest.java'
p54
I94
I100
tp55
asS'testmessenger::ICQ::ICQCLI_REQLISTSPacketTest.testGetContentHex()'
p56
(lp57
(S'testmessenger/ICQ/ICQCLI_REQLISTSPacketTest.java'
I82
tp58
asS'DuplicatedCode3'
p59
(lp60
(S'testmessenger/ICQ/ICQSRV_REPLYROSTERPacketTest.java'
p61
I105
I108
tp62
a(S'testmessenger/ICQ/ICQSRV_REPLYROSTERPacketTest.java'
p63
I110
I113
tp64
asS'DuplicatedCode2'
p65
(lp66
(S'testmessenger/UtilsTest.java'
p67
I154
I157
tp68
a(S'testmessenger/UtilsTest.java'
p69
I151
I153
tp70
asS'DuplicatedCode4'
p71
(lp72
(S'testmessenger/MSN/MSNIncomingNLNPacketTest.java'
p73
I51
I65
tp74
a(S'testmessenger/MSN/MSNIncomingNLNPacketTest.java'
p75
I66
I80
tp76
asS'testmessenger::ICQ::ICQSRV_REPLYROSTERPacketTest.testGetLength()'
p77
(lp78
(S'testmessenger/ICQ/ICQSRV_REPLYROSTERPacketTest.java'
I116
tp79
asS'testmessenger::MSN::MSNOutgoingCALPacketTest'
p80
(lp81
(S'testmessenger/MSN/MSNOutgoingCALPacketTest.java'
I0
tp82
asS'testmessenger::MSN::MSNIncomingUSRPacketTest.setUp()'
p83
(lp84
(S'testmessenger/MSN/MSNIncomingUSRPacketTest.java'
I64
tp85
asS'testmessenger::ICQ::ICQCLI_READYPacketTest.testGetLength()'
p86
(lp87
(S'testmessenger/ICQ/ICQCLI_READYPacketTest.java'
I89
tp88
asS'testmessenger::ICQ::ICQCLI_REQLISTSPacketTest.testGetKindOfPacket()'
p89
(lp90
(S'testmessenger/ICQ/ICQCLI_REQLISTSPacketTest.java'
I75
tp91
asS'testmessenger::MSN::MSNOutgoingUSRPacketTest.testContent()'
p92
(lp93
(S'testmessenger/MSN/MSNOutgoingUSRPacketTest.java'
I44
tp94
asS'testmessenger::MSN::MSNOutgoingCHGPacketTest.setUp()'
p95
(lp96
(S'testmessenger/MSN/MSNOutgoingCHGPacketTest.java'
I55
tp97
asS'testmessenger::ICQ::ICQCLI_ADDBUDDYPacketTest.testGetLength()'
p98
(lp99
(S'testmessenger/ICQ/ICQCLI_ADDBUDDYPacketTest.java'
I100
tp100
asS'testmessenger::ICQ::ICQSRV_RATESPacketTest.testGetLength()'
p101
(lp102
(S'testmessenger/ICQ/ICQSRV_RATESPacketTest.java'
I81
tp103
asS'testmessenger::MSN::MSNIncomingADDPacketTest.testCmd()'
p104
(lp105
(S'testmessenger/MSN/MSNIncomingADDPacketTest.java'
I44
tp106
asS'testmessenger::ICQ::ICQSRV_REPLYROSTERPacketTest'
p107
(lp108
(S'testmessenger/ICQ/ICQSRV_REPLYROSTERPacketTest.java'
I0
tp109
asS'testmessenger::Yahoo::YahooSRV_LOGONPacketTest.testGetLength()'
p110
(lp111
(S'testmessenger/Yahoo/YahooSRV_LOGONPacketTest.java'
I54
tp112
asS'testmessenger::UtilsTest'
p113
(lp114
(S'testmessenger/UtilsTest.java'
I0
tp115
asS'testmessenger::Yahoo::YahooSRV_MESSAGEPacketTest.testGetContentHex()'
p116
(lp117
(S'testmessenger/Yahoo/YahooSRV_MESSAGEPacketTest.java'
I88
tp118
asS'testmessenger::MSN::testMSNMessage.testRemoveProtocol()'
p119
(lp120
(S'testmessenger/MSN/testMSNMessage.java'
I53
tp121
asS'testmessenger::MSN::MSNOutgoingCHGPacketTest.testContent()'
p122
(lp123
(S'testmessenger/MSN/MSNOutgoingCHGPacketTest.java'
I44
tp124
asS'testmessenger::ICQ::ICQCLI_IDENTPacketTest.testICQCLI_IDENTPacket()'
p125
(lp126
(S'testmessenger/ICQ/ICQCLI_IDENTPacketTest.java'
I69
tp127
asS'EmptyTest58'
p128
(lp129
(S'testmessenger/Yahoo/YahooContactTest.java'
I80
tp130
asS'testmessenger::MSN::MSNProtocolTest.setUp()'
p131
(lp132
(S'testmessenger/MSN/MSNProtocolTest.java'
I53
tp133
asS'testmessenger::Yahoo::YahooSRV_LISTPacketTest.testGetKindOfPacket()'
p134
(lp135
(S'testmessenger/Yahoo/YahooSRV_LISTPacketTest.java'
I75
tp136
asS'AssertionLess88'
p137
(lp138
(S'testmessenger/ICQ/ICQProtocolTest.java'
I129
tp139
asS'AssertionLess89'
p140
(lp141
(S'testmessenger/UtilsTest.java'
I105
tp142
asS'testmessenger::ICQ::ICQProtocolTest.tearDown()'
p143
(lp144
(S'testmessenger/ICQ/ICQProtocolTest.java'
I62
tp145
asS'testmessenger::ICQ::ICQCLI_GOODBYEPacketTest.testGetLength()'
p146
(lp147
(S'testmessenger/ICQ/ICQCLI_GOODBYEPacketTest.java'
I68
tp148
asS'AssertionLess81'
p149
(lp150
(S'testmessenger/ICQ/ICQCLI_COOKIEPacketTest.java'
I68
tp151
asS'testmessenger::MSN::MSNIncomingNLNPacketTest.testContact()'
p152
(lp153
(S'testmessenger/MSN/MSNIncomingNLNPacketTest.java'
I84
tp154
asS'AssertionLess83'
p155
(lp156
(S'testmessenger/ICQ/ICQProtocolTest.java'
I132
tp157
asS'AssertionLess84'
p158
(lp159
(S'testmessenger/Yahoo/YahooContactTest.java'
I77
tp160
asS'EmptyTest55'
p161
(lp162
(S'testmessenger/ICQ/ICQCLI_ADDBUDDYPacketTest.java'
I100
tp163
asS'AssertionLess86'
p164
(lp165
(S'testmessenger/Yahoo/YahooContactTest.java'
I89
tp166
asS'AssertionLess87'
p167
(lp168
(S'testmessenger/UtilsTest.java'
I45
tp169
asS'testmessenger::ICQ::ICQCLI_REQLISTSPacketTest.tearDown()'
p170
(lp171
(S'testmessenger/ICQ/ICQCLI_REQLISTSPacketTest.java'
I61
tp172
asS'testmessenger::ICQ::ICQSRV_RATESPacketTest.testGetContentHex()'
p173
(lp174
(S'testmessenger/ICQ/ICQSRV_RATESPacketTest.java'
I76
tp175
asS'testmessenger::ICQ::ICQCLI_ACKRATESPacketTest.testICQCLI_ACKRATESPacket()'
p176
(lp177
(S'testmessenger/ICQ/ICQCLI_ACKRATESPacketTest.java'
I68
tp178
asS'testmessenger::Yahoo::YahooSRV_LOGOFFPacketTest.testGetStatus()'
p179
(lp180
(S'testmessenger/Yahoo/YahooSRV_LOGOFFPacketTest.java'
I40
tp181
asS'testmessenger::MSN::MSNIncomingMSGPacketTest'
p182
(lp183
(S'testmessenger/MSN/MSNIncomingMSGPacketTest.java'
I0
tp184
asS'testmessenger::ICQ::ICQCLI_SENDMSGV1PacketTest'
p185
(lp186
(S'testmessenger/ICQ/ICQCLI_SENDMSGV1PacketTest.java'
I0
tp187
asS'testmessenger::MSN::MSNIncomingQRYPacketTest.testContent()'
p188
(lp189
(S'testmessenger/MSN/MSNIncomingQRYPacketTest.java'
I44
tp190
asS'testmessenger::ICQ::ICQCLI_SETICBMPacketTest.testICQCLI_SETICBMPacket()'
p191
(lp192
(S'testmessenger/ICQ/ICQCLI_SETICBMPacketTest.java'
I68
tp193
asS'testmessenger::ICQ::ICQCLI_GOODBYEPacketTest.tearDown()'
p194
(lp195
(S'testmessenger/ICQ/ICQCLI_GOODBYEPacketTest.java'
I58
tp196
asS'testmessenger::MSN::MSNIncomingXFRPacketTest.testContent()'
p197
(lp198
(S'testmessenger/MSN/MSNIncomingXFRPacketTest.java'
I49
tp199
asS'testmessenger::ICQ::ICQCLI_SENDMSGV1PacketTest.setUp()'
p200
(lp201
(S'testmessenger/ICQ/ICQCLI_SENDMSGV1PacketTest.java'
I53
tp202
asS'testmessenger::ICQ::ICQCLI_SETSTATUSPacketTest'
p203
(lp204
(S'testmessenger/ICQ/ICQCLI_SETSTATUSPacketTest.java'
I0
tp205
asS'AssertionLess82'
p206
(lp207
(S'testmessenger/ICQ/ICQProtocolTest.java'
I87
tp208
asS'testmessenger::MSN::MSNIncomingADDPacketTest.testContent()'
p209
(lp210
(S'testmessenger/MSN/MSNIncomingADDPacketTest.java'
I48
tp211
asS'testmessenger::MSN::MSNOutgoingANSPacketTest.testContent()'
p212
(lp213
(S'testmessenger/MSN/MSNOutgoingANSPacketTest.java'
I44
tp214
asS'AssertionLess39'
p215
(lp216
(S'testmessenger/Yahoo/YahooContactTest.java'
I58
tp217
asS'AssertionLess38'
p218
(lp219
(S'testmessenger/MSN/testMSNMessage.java'
I57
tp220
asS'AssertionLess35'
p221
(lp222
(S'testmessenger/ICQ/ICQCLI_SETICBMPacketTest.java'
I68
tp223
asS'AssertionLess34'
p224
(lp225
(S'testmessenger/ICQ/ICQCLI_REQBUDDYPacketTest.java'
I68
tp226
asS'AssertionLess37'
p227
(lp228
(S'testmessenger/Yahoo/YahooContactTest.java'
I74
tp229
asS'AssertionLess36'
p230
(lp231
(S'testmessenger/ICQ/ICQCLI_FAMILIESPacketTest.java'
I68
tp232
asS'AssertionLess31'
p233
(lp234
(S'testmessenger/ICQ/ICQCLI_ACKRATESPacketTest.java'
I68
tp235
asS'AssertionLess30'
p236
(lp237
(S'testmessenger/ICQ/ICQCLI_SENDMSGPacketTest.java'
I70
tp238
asS'AssertionLess33'
p239
(lp240
(S'testmessenger/ICQ/ICQCLI_GOODBYEPacketTest.java'
I62
tp241
asS'AssertionLess32'
p242
(lp243
(S'testmessenger/ICQ/ICQCLI_REQBOSPacketTest.java'
I68
tp244
asS'testmessenger::Yahoo::YahooContactTest.testSetNick()'
p245
(lp246
(S'testmessenger/Yahoo/YahooContactTest.java'
I80
tp247
asS'testmessenger::Yahoo::YahooSRV_LISTPacketTest'
p248
(lp249
(S'testmessenger/Yahoo/YahooSRV_LISTPacketTest.java'
I0
tp250
asS'testmessenger::ICQ::ICQCLI_CONTACTTest.testGetUIN()'
p251
(lp252
(S'testmessenger/ICQ/ICQCLI_CONTACTTest.java'
I71
tp253
asS'testmessenger::ICQ::ICQCLI_SENDMSGV1PacketTest.testGetContentHex()'
p254
(lp255
(S'testmessenger/ICQ/ICQCLI_SENDMSGV1PacketTest.java'
I84
tp256
asS'testmessenger::Yahoo::YahooSRV_MESSAGEPacketTest'
p257
(lp258
(S'testmessenger/Yahoo/YahooSRV_MESSAGEPacketTest.java'
I0
tp259
asS'testmessenger::MSN::MSNOutgoingLSTPacketTest'
p260
(lp261
(S'testmessenger/MSN/MSNOutgoingLSTPacketTest.java'
I0
tp262
asS'testmessenger::ICQ::ICQCLI_REQINFOPacketTest.testGetLength()'
p263
(lp264
(S'testmessenger/ICQ/ICQCLI_REQINFOPacketTest.java'
I89
tp265
asS'testmessenger::ICQ::ICQCLI_COOKIEPacketTest.testGetLength()'
p266
(lp267
(S'testmessenger/ICQ/ICQCLI_COOKIEPacketTest.java'
I94
tp268
asS'testmessenger::ICQ::ICQCLI_SENDMSGPacketTest'
p269
(lp270
(S'testmessenger/ICQ/ICQCLI_SENDMSGPacketTest.java'
I0
tp271
asS'testmessenger::ICQ::ICQSRV_HELLOPacketTest.testGetLength()'
p272
(lp273
(S'testmessenger/ICQ/ICQSRV_HELLOPacketTest.java'
I75
tp274
asS'testmessenger::UtilsTest.testByteToHex()'
p275
(lp276
(S'testmessenger/UtilsTest.java'
I109
tp277
asS'testmessenger::MSN::MSNPacketFactoryTest.setUp()'
p278
(lp279
(S'testmessenger/MSN/MSNPacketFactoryTest.java'
I135
tp280
asS'testmessenger::MSN::MSNIncomingUSRPacketTest.testContent()'
p281
(lp282
(S'testmessenger/MSN/MSNIncomingUSRPacketTest.java'
I44
tp283
asS'testmessenger::ICQ::ICQSRV_FAMILIES2PacketTest.setUp()'
p284
(lp285
(S'testmessenger/ICQ/ICQSRV_FAMILIES2PacketTest.java'
I51
tp286
asS'testmessenger::ICQ::ICQCLI_REQLOCATIONPacketTest.testGetContentHex()'
p287
(lp288
(S'testmessenger/ICQ/ICQCLI_REQLOCATIONPacketTest.java'
I75
tp289
asS'testmessenger::MSN::MSNIncomingNLNPacketTest.testStatus()'
p290
(lp291
(S'testmessenger/MSN/MSNIncomingNLNPacketTest.java'
I49
tp292
asS'testmessenger::ICQ::ICQCLI_ADDBUDDYPacketTest.tearDown()'
p293
(lp294
(S'testmessenger/ICQ/ICQCLI_ADDBUDDYPacketTest.java'
I64
tp295
asS'testmessenger::UtilsTest.testHexToInt()'
p296
(lp297
(S'testmessenger/UtilsTest.java'
I101
tp298
asS'testmessenger::ICQ::ICQSRV_FAMILIESPacketTest'
p299
(lp300
(S'testmessenger/ICQ/ICQSRV_FAMILIESPacketTest.java'
I0
tp301
asS'testmessenger::MSN::MSNOutgoingINFPacketTest.testContent()'
p302
(lp303
(S'testmessenger/MSN/MSNOutgoingINFPacketTest.java'
I44
tp304
asS'testmessenger::MSN::MSNOutgoingUSRIPacketTest.testContent()'
p305
(lp306
(S'testmessenger/MSN/MSNOutgoingUSRIPacketTest.java'
I44
tp307
asS'testmessenger::ICQ::ICQCLI_SENDMSGV1PacketTest.tearDown()'
p308
(lp309
(S'testmessenger/ICQ/ICQCLI_SENDMSGV1PacketTest.java'
I60
tp310
asS'testmessenger::ICQ::ICQProtocolTest.testLoginStringI()'
p311
(lp312
(S'testmessenger/ICQ/ICQProtocolTest.java'
I105
tp313
asS'AssertionLess85'
p314
(lp315
(S'testmessenger/ICQ/ICQCLI_ADDBUDDYPacketTest.java'
I97
tp316
asS'testmessenger::MSN::MSNOutgoingINFPacketTest'
p317
(lp318
(S'testmessenger/MSN/MSNOutgoingINFPacketTest.java'
I0
tp319
asS'testmessenger::MSN::MSNOutgoingUSRIPacketTest'
p320
(lp321
(S'testmessenger/MSN/MSNOutgoingUSRIPacketTest.java'
I0
tp322
asS'testmessenger::ICQ::ICQCLI_REQBOSPacketTest.setUp()'
p323
(lp324
(S'testmessenger/ICQ/ICQCLI_REQBOSPacketTest.java'
I53
tp325
asS'testmessenger::ICQ::ICQCLI_RATESREQUESTPacketTest.testGetKindOfPacket()'
p326
(lp327
(S'testmessenger/ICQ/ICQCLI_RATESREQUESTPacketTest.java'
I74
tp328
asS'testmessenger::MSN::MSNIncomingMSGPacketTest.testContent()'
p329
(lp330
(S'testmessenger/MSN/MSNIncomingMSGPacketTest.java'
I43
tp331
asS'testmessenger::MSN::MSNOutgoingINFPacketTest.setUp()'
p332
(lp333
(S'testmessenger/MSN/MSNOutgoingINFPacketTest.java'
I55
tp334
asS'testmessenger::MSN::MSNOutgoingUSRIPacketTest.setUp()'
p335
(lp336
(S'testmessenger/MSN/MSNOutgoingUSRIPacketTest.java'
I55
tp337
asS'testmessenger::MSN::MSNIncomingVERPacketTest.setUp()'
p338
(lp339
(S'testmessenger/MSN/MSNIncomingVERPacketTest.java'
I56
tp340
asS'testmessenger::ICQ::ICQSRV_RATESPacketTest.tearDown()'
p341
(lp342
(S'testmessenger/ICQ/ICQSRV_RATESPacketTest.java'
I59
tp343
asS'testmessenger::Yahoo::YahooSRV_AUTHPacketTest.tearDown()'
p344
(lp345
(S'testmessenger/Yahoo/YahooSRV_AUTHPacketTest.java'
I63
tp346
asS'testmessenger::MSN::MSNIncomingNLNPacketTest.testContent()'
p347
(lp348
(S'testmessenger/MSN/MSNIncomingNLNPacketTest.java'
I44
tp349
asS'testmessenger::Yahoo::YahooSRV_MESSAGEPacketTest.testGetMessage()'
p350
(lp351
(S'testmessenger/Yahoo/YahooSRV_MESSAGEPacketTest.java'
I68
tp352
asS'testmessenger::ICQ::ICQCLI_ADDCONTACTPacketTest.testGetLength()'
p353
(lp354
(S'testmessenger/ICQ/ICQCLI_ADDCONTACTPacketTest.java'
I86
tp355
asS'testmessenger::ICQ::ICQCLI_ACKRATESPacketTest.testGetContentHex()'
p356
(lp357
(S'testmessenger/ICQ/ICQCLI_ACKRATESPacketTest.java'
I83
tp358
asS'testmessenger::MSN::MSNOutgoingUSRSPacketTest.setUp()'
p359
(lp360
(S'testmessenger/MSN/MSNOutgoingUSRSPacketTest.java'
I55
tp361
asS'testmessenger::MSN::MSNIncomingCHLPacketTest.setUp()'
p362
(lp363
(S'testmessenger/MSN/MSNIncomingCHLPacketTest.java'
I55
tp364
asS'testmessenger::MSN::MSNIncomingNLNPacketTest'
p365
(lp366
(S'testmessenger/MSN/MSNIncomingNLNPacketTest.java'
I0
tp367
asS'testmessenger::ICQ::ICQSRV_FAMILIES2PacketTest'
p368
(lp369
(S'testmessenger/ICQ/ICQSRV_FAMILIES2PacketTest.java'
I0
tp370
asS'testmessenger::ICQ::ICQCLI_SETICBMPacketTest.testGetContentHex()'
p371
(lp372
(S'testmessenger/ICQ/ICQCLI_SETICBMPacketTest.java'
I80
tp373
asS'testmessenger::ICQ::ICQSRV_COOKIEPacketTest'
p374
(lp375
(S'testmessenger/ICQ/ICQSRV_COOKIEPacketTest.java'
I0
tp376
asS'testmessenger::MSN::MSNIncomingINFPacketTest.testContent()'
p377
(lp378
(S'testmessenger/MSN/MSNIncomingINFPacketTest.java'
I44
tp379
asS'testmessenger::MSN::MSNOutgoingPacketTest.setUp()'
p380
(lp381
(S'testmessenger/MSN/MSNOutgoingPacketTest.java'
I53
tp382
asS'testmessenger::ICQ::ICQCLI_IDENTPacketTest.testGetContentHex()'
p383
(lp384
(S'testmessenger/ICQ/ICQCLI_IDENTPacketTest.java'
I112
tp385
asS'testmessenger::ICQ::ICQProtocolTest.testSendPacket()'
p386
(lp387
(S'testmessenger/ICQ/ICQProtocolTest.java'
I66
tp388
asS'testmessenger::Yahoo::YahooSRV_AUTH_RESPPacketTest.testGetContentHex()'
p389
(lp390
(S'testmessenger/Yahoo/YahooSRV_AUTH_RESPPacketTest.java'
I38
tp391
asS'testmessenger::ICQ::ICQSRV_HELLOPacketTest.setUp()'
p392
(lp393
(S'testmessenger/ICQ/ICQSRV_HELLOPacketTest.java'
I54
tp394
asS'testmessenger::MSN::MSNIncomingPacketTest'
p395
(lp396
(S'testmessenger/MSN/MSNIncomingPacketTest.java'
I0
tp397
asS'testmessenger::ICQ::ICQCLI_READYPacketTest.testGetKindOfPacket()'
p398
(lp399
(S'testmessenger/ICQ/ICQCLI_READYPacketTest.java'
I74
tp400
asS'testmessenger::Yahoo::YahooSRV_LOGOFFPacketTest.testYahooSRV_LOGOFFPacket()'
p401
(lp402
(S'testmessenger/Yahoo/YahooSRV_LOGOFFPacketTest.java'
I32
tp403
asS'testmessenger::MSN::MSNSessionTest.testSomething()'
p404
(lp405
(S'testmessenger/MSN/MSNSessionTest.java'
I41
tp406
asS'testmessenger::ICQ::ICQCLI_SETICBMPacketTest.setUp()'
p407
(lp408
(S'testmessenger/ICQ/ICQCLI_SETICBMPacketTest.java'
I53
tp409
asS'testmessenger::MSN::MSNIncomingCHGPacketTest'
p410
(lp411
(S'testmessenger/MSN/MSNIncomingCHGPacketTest.java'
I0
tp412
asS'testmessenger::ICQ::ICQSRV_REPLYROSTERPacketTest.tearDown()'
p413
(lp414
(S'testmessenger/ICQ/ICQSRV_REPLYROSTERPacketTest.java'
I63
tp415
asS'testmessenger::MSN::MSNOutgoingUSRPacketTest.setUp()'
p416
(lp417
(S'testmessenger/MSN/MSNOutgoingUSRPacketTest.java'
I55
tp418
asS'testmessenger::MSN::testMSNMessage.setUp()'
p419
(lp420
(S'testmessenger/MSN/testMSNMessage.java'
I38
tp421
asS'testmessenger::ICQ::ICQCLI_IDENTPacketTest'
p422
(lp423
(S'testmessenger/ICQ/ICQCLI_IDENTPacketTest.java'
I0
tp424
asS'testmessenger::ICQ::ICQCLI_READYPacketTest.tearDown()'
p425
(lp426
(S'testmessenger/ICQ/ICQCLI_READYPacketTest.java'
I59
tp427
asS'testmessenger::ICQ::ICQCLI_SETICBMPacketTest.tearDown()'
p428
(lp429
(S'testmessenger/ICQ/ICQCLI_SETICBMPacketTest.java'
I60
tp430
asS'AssertionRoulette0'
p431
(lp432
(S'testmessenger/UtilsTest.java'
I49
tp433
asS'testmessenger::ICQ::ICQCLI_GOODBYEPacketTest.testGetContentHex()'
p434
(lp435
(S'testmessenger/ICQ/ICQCLI_GOODBYEPacketTest.java'
I65
tp436
asS'testmessenger::ICQ::ICQCLI_IDENTPacketTest.setUp()'
p437
(lp438
(S'testmessenger/ICQ/ICQCLI_IDENTPacketTest.java'
I54
tp439
asS'testmessenger::ICQ::ICQProtocolTest.testAnalyzePacket()'
p440
(lp441
(S'testmessenger/ICQ/ICQProtocolTest.java'
I132
tp442
asS'testmessenger::Yahoo::YahooContactTest.testGetLogin()'
p443
(lp444
(S'testmessenger/Yahoo/YahooContactTest.java'
I77
tp445
asS'testmessenger::MSN::MSNIncomingUSRPacketTest.tearDown()'
p446
(lp447
(S'testmessenger/MSN/MSNIncomingUSRPacketTest.java'
I74
tp448
asS'testmessenger::Yahoo::YahooContactTest.testGetStatus()'
p449
(lp450
(S'testmessenger/Yahoo/YahooContactTest.java'
I89
tp451
asS'testmessenger::MSN::testMSNMessage'
p452
(lp453
(S'testmessenger/MSN/testMSNMessage.java'
I0
tp454
asS'testmessenger::ICQ::ICQCLI_REQLOCATIONPacketTest.tearDown()'
p455
(lp456
(S'testmessenger/ICQ/ICQCLI_REQLOCATIONPacketTest.java'
I61
tp457
asS'testmessenger::MSN::MSNOutgoingCHGPacketTest'
p458
(lp459
(S'testmessenger/MSN/MSNOutgoingCHGPacketTest.java'
I0
tp460
asS'testmessenger::ICQ::ICQCLI_REQINFOPacketTest.testGetContentHex()'
p461
(lp462
(S'testmessenger/ICQ/ICQCLI_REQINFOPacketTest.java'
I81
tp463
asS'testmessenger::MSN::MSNOutgoingQRYPacketTest.testContent()'
p464
(lp465
(S'testmessenger/MSN/MSNOutgoingQRYPacketTest.java'
I44
tp466
asS'testmessenger::ICQ::ICQCLI_REQBUDDYPacketTest.setUp()'
p467
(lp468
(S'testmessenger/ICQ/ICQCLI_REQBUDDYPacketTest.java'
I53
tp469
asS'testmessenger::MSN::MSNIncomingPacketTest.setUp()'
p470
(lp471
(S'testmessenger/MSN/MSNIncomingPacketTest.java'
I53
tp472
asS'testmessenger::MSN::MSNIncomingCHGPacketTest.testCmd()'
p473
(lp474
(S'testmessenger/MSN/MSNIncomingCHGPacketTest.java'
I44
tp475
asS'testmessenger::ICQ::ICQCLI_REQINFOPacketTest.testGetKindOfPacket()'
p476
(lp477
(S'testmessenger/ICQ/ICQCLI_REQINFOPacketTest.java'
I74
tp478
asS'testmessenger::ICQ::ICQSRV_REPLYROSTERPacketTest.testGetList()'
p479
(lp480
(S'testmessenger/ICQ/ICQSRV_REPLYROSTERPacketTest.java'
I85
tp481
asS'testmessenger::ICQ::ICQSRV_REPLYROSTERPacketTest.testGetKindOfPacket()'
p482
(lp483
(S'testmessenger/ICQ/ICQSRV_REPLYROSTERPacketTest.java'
I74
tp484
asS'testmessenger::MSN::MSNIncomingXFRPacketTest.tearDown()'
p485
(lp486
(S'testmessenger/MSN/MSNIncomingXFRPacketTest.java'
I76
tp487
asS'testmessenger::MSN::MSNOutgoingANSPacketTest'
p488
(lp489
(S'testmessenger/MSN/MSNOutgoingANSPacketTest.java'
I0
tp490
asS'testmessenger::MSN::MSNProtocolTest.tearDown()'
p491
(lp492
(S'testmessenger/MSN/MSNProtocolTest.java'
I60
tp493
asS'testmessenger::MSN::MSNContactTest.tearDown()'
p494
(lp495
(S'testmessenger/MSN/MSNContactTest.java'
I61
tp496
asS'testmessenger::ICQ::ICQSRV_FAMILIES2PacketTest.testICQSRV_FAMILIES2Packet()'
p497
(lp498
(S'testmessenger/ICQ/ICQSRV_FAMILIES2PacketTest.java'
I66
tp499
asS'testmessenger::MSN::MSNIncomingLSTPacketTest.testContent()'
p500
(lp501
(S'testmessenger/MSN/MSNIncomingLSTPacketTest.java'
I44
tp502
asS'testmessenger::MSN::MSNPacketTest.setUp()'
p503
(lp504
(S'testmessenger/MSN/MSNPacketTest.java'
I54
tp505
asS'testmessenger::MSN::MSNIncomingPacketTest.testSomething()'
p506
(lp507
(S'testmessenger/MSN/MSNIncomingPacketTest.java'
I42
tp508
asS'AssertionLess66'
p509
(lp510
(S'testmessenger/ICQ/ICQCLI_ADDCONTACTPacketTest.java'
I86
tp511
asS'AssertionLess67'
p512
(lp513
(S'testmessenger/ICQ/ICQCLI_SENDMSGV1PacketTest.java'
I68
tp514
asS'AssertionLess64'
p515
(lp516
(S'testmessenger/ICQ/ICQCLI_SENDMSGPacketTest.java'
I96
tp517
asS'AssertionLess65'
p518
(lp519
(S'testmessenger/ICQ/ICQProtocolTest.java'
I108
tp520
asS'AssertionLess62'
p521
(lp522
(S'testmessenger/ICQ/ICQCLI_REQICBMPacketTest.java'
I67
tp523
asS'AssertionLess63'
p524
(lp525
(S'testmessenger/Yahoo/YahooContactTest.java'
I68
tp526
asS'AssertionLess60'
p527
(lp528
(S'testmessenger/Yahoo/YahooSRV_AUTHPacketTest.java'
I67
tp529
asS'AssertionLess61'
p530
(lp531
(S'testmessenger/ICQ/ICQProtocolTest.java'
I66
tp532
asS'AssertionLess48'
p533
(lp534
(S'testmessenger/MSN/MSNIncomingPacketTest.java'
I42
tp535
asS'AssertionLess68'
p536
(lp537
(S'testmessenger/ICQ/ICQCLI_REQINFOPacketTest.java'
I68
tp538
asS'AssertionLess69'
p539
(lp540
(S'testmessenger/ICQ/ICQProtocolTest.java'
I93
tp541
asS'testmessenger::ICQ::ICQProtocolTest.testConnect()'
p542
(lp543
(S'testmessenger/ICQ/ICQProtocolTest.java'
I135
tp544
asS'testmessenger::MSN::MSNIncomingLSTPacketTest.setUp()'
p545
(lp546
(S'testmessenger/MSN/MSNIncomingLSTPacketTest.java'
I76
tp547
asS'testmessenger::ICQ::ICQCLI_SENDMSGPacketTest.setUp()'
p548
(lp549
(S'testmessenger/ICQ/ICQCLI_SENDMSGPacketTest.java'
I54
tp550
asS'testmessenger::ICQ::ICQProtocolTest.testAddContactString()'
p551
(lp552
(S'testmessenger/ICQ/ICQProtocolTest.java'
I123
tp553
asS'EmptyTest48'
p554
(lp555
(S'testmessenger/MSN/testMSNMessage.java'
I45
tp556
asS'EmptyTest49'
p557
(lp558
(S'testmessenger/Yahoo/YahooContactTest.java'
I89
tp559
asS'EmptyTest44'
p560
(lp561
(S'testmessenger/ICQ/ICQProtocolTest.java'
I129
tp562
asS'EmptyTest45'
p563
(lp564
(S'testmessenger/UtilsTest.java'
I105
tp565
asS'EmptyTest46'
p566
(lp567
(S'testmessenger/ICQ/ICQProtocolTest.java'
I141
tp568
asS'EmptyTest47'
p569
(lp570
(S'testmessenger/MSN/MSNProtocolTest.java'
I42
tp571
asS'testmessenger::ICQ::ICQCLI_FAMILIESPacketTest.testGetLength()'
p572
(lp573
(S'testmessenger/ICQ/ICQCLI_FAMILIESPacketTest.java'
I90
tp574
asS'EmptyTest41'
p575
(lp576
(S'testmessenger/UtilsTest.java'
I163
tp577
asS'testmessenger::ICQ::ICQProtocolTest.testGetServer()'
p578
(lp579
(S'testmessenger/ICQ/ICQProtocolTest.java'
I141
tp580
asS'EmptyTest43'
p581
(lp582
(S'testmessenger/UtilsTest.java'
I45
tp583
asS'testmessenger::ICQ::ICQCLI_FAMILIESPacketTest.testGetKindOfPacket()'
p584
(lp585
(S'testmessenger/ICQ/ICQCLI_FAMILIESPacketTest.java'
I74
tp586
asS'testmessenger::MSN::MSNIncomingXFRPacketTest.testNotificationServer()'
p587
(lp588
(S'testmessenger/MSN/MSNIncomingXFRPacketTest.java'
I54
tp589
asS'testmessenger::Yahoo::YahooSRV_LOGONPacketTest.testGetContact()'
p590
(lp591
(S'testmessenger/Yahoo/YahooSRV_LOGONPacketTest.java'
I33
tp592
asS'testmessenger::MSN::MSNIncomingRNGPacketTest.testCKI()'
p593
(lp594
(S'testmessenger/MSN/MSNIncomingRNGPacketTest.java'
I65
tp595
asS'testmessenger::MSN::MSNIncomingVERPacketTest.testContent()'
p596
(lp597
(S'testmessenger/MSN/MSNIncomingVERPacketTest.java'
I44
tp598
asS'testmessenger::ICQ::ICQCLI_SETSTATUSPacketTest.testGetLength()'
p599
(lp600
(S'testmessenger/ICQ/ICQCLI_SETSTATUSPacketTest.java'
I106
tp601
asS'testmessenger::Yahoo::YahooSRV_AUTH_RESPPacketTest.testGetLength()'
p602
(lp603
(S'testmessenger/Yahoo/YahooSRV_AUTH_RESPPacketTest.java'
I44
tp604
asS'testmessenger::ICQ::ICQProtocolTest.testGetContactList()'
p605
(lp606
(S'testmessenger/ICQ/ICQProtocolTest.java'
I117
tp607
asS'AssertionLess18'
p608
(lp609
(S'testmessenger/MSN/MSNProtocolTest.java'
I42
tp610
asS'testmessenger::ICQ::ICQCLI_REQINFOPacketTest.tearDown()'
p611
(lp612
(S'testmessenger/ICQ/ICQCLI_REQINFOPacketTest.java'
I60
tp613
asS'testmessenger::MSN::MSNIncomingMSGPacketTest.getNrOfUnreadMsgs()'
p614
(lp615
(S'testmessenger/MSN/MSNIncomingMSGPacketTest.java'
I56
tp616
asS'testmessenger::ICQ::ICQCLI_REQROSTERPacketTest.testGetContentHex()'
p617
(lp618
(S'testmessenger/ICQ/ICQCLI_REQROSTERPacketTest.java'
I74
tp619
asS'testmessenger::ICQ::ICQSRV_RATESPacketTest.testICQSRV_RATESPacket()'
p620
(lp621
(S'testmessenger/ICQ/ICQSRV_RATESPacketTest.java'
I67
tp622
asS'testmessenger::ICQ::ICQCLI_COOKIEPacketTest.setUp()'
p623
(lp624
(S'testmessenger/ICQ/ICQCLI_COOKIEPacketTest.java'
I53
tp625
asS'testmessenger::MSN::MSNSessionTest'
p626
(lp627
(S'testmessenger/MSN/MSNSessionTest.java'
I0
tp628
asS'testmessenger::ICQ::ICQCLI_CONTACTTest.setUp()'
p629
(lp630
(S'testmessenger/ICQ/ICQCLI_CONTACTTest.java'
I41
tp631
asS'testmessenger::MSN::MSNOutgoingCALPacketTest.testContent()'
p632
(lp633
(S'testmessenger/MSN/MSNOutgoingCALPacketTest.java'
I44
tp634
asS'testmessenger::ICQ::ICQCLI_FAMILIESPacketTest.setUp()'
p635
(lp636
(S'testmessenger/ICQ/ICQCLI_FAMILIESPacketTest.java'
I57
tp637
asS'testmessenger::ICQ::ICQCLI_SENDMSGPacketTest.tearDown()'
p638
(lp639
(S'testmessenger/ICQ/ICQCLI_SENDMSGPacketTest.java'
I62
tp640
asS'testmessenger::MSN::MSNIncomingUSRPacketTest.testEncryption()'
p641
(lp642
(S'testmessenger/MSN/MSNIncomingUSRPacketTest.java'
I49
tp643
asS'testmessenger::ICQ::ICQCLI_REQBUDDYPacketTest.testICQCLI_REQBUDDYPacket()'
p644
(lp645
(S'testmessenger/ICQ/ICQCLI_REQBUDDYPacketTest.java'
I68
tp646
asS'testmessenger::MSN::MSNPacketFactoryTest'
p647
(lp648
(S'testmessenger/MSN/MSNPacketFactoryTest.java'
I0
tp649
asS'testmessenger::MSN::MSNIncomingLSTPacketTest.testContact()'
p650
(lp651
(S'testmessenger/MSN/MSNIncomingLSTPacketTest.java'
I49
tp652
asS'testmessenger::MSN::MSNPacketFactoryTest.testIncomingNullPacketException()'
p653
(lp654
(S'testmessenger/MSN/MSNPacketFactoryTest.java'
I114
tp655
asS'testmessenger::ICQ::ICQCLI_REQICBMPacketTest.tearDown()'
p656
(lp657
(S'testmessenger/ICQ/ICQCLI_REQICBMPacketTest.java'
I59
tp658
asS'testmessenger::ICQ::ICQSRV_COOKIEPacketTest.setUp()'
p659
(lp660
(S'testmessenger/ICQ/ICQSRV_COOKIEPacketTest.java'
I85
tp661
asS'testmessenger::Yahoo::YahooSRV_AUTHPacketTest.testGetKindOfPacket()'
p662
(lp663
(S'testmessenger/Yahoo/YahooSRV_AUTHPacketTest.java'
I71
tp664
asS'AssertionLess19'
p665
(lp666
(S'testmessenger/Yahoo/YahooContactTest.java'
I64
tp667
asS'testmessenger::MSN::testMSNMessage.testSendMessage()'
p668
(lp669
(S'testmessenger/MSN/testMSNMessage.java'
I57
tp670
asS'ForTestersOnly4'
p671
(lp672
(S'messenger/Yahoo/YahooSRV_LISTPacket.java'
I115
tp673
asS'ForTestersOnly5'
p674
(lp675
(S'messenger/MSN/MSNPacketFactory.java'
I102
tp676
asS'ForTestersOnly6'
p677
(lp678
(S'messenger/MSN/MSNIncomingMSGPacket.java'
I120
tp679
asS'ForTestersOnly7'
p680
(lp681
(S'messenger/ICQ/ICQSRV_REPLYROSTERPacket.java'
I180
tp682
asS'ForTestersOnly0'
p683
(lp684
(S'messenger/MSN/MSNIncomingINFPacket.java'
I51
tp685
asS'ForTestersOnly1'
p686
(lp687
(S'messenger/MSN/MSNIncomingRNGPacket.java'
I95
tp688
asS'ForTestersOnly2'
p689
(lp690
(S'messenger/MSN/MSNContact.java'
I45
tp691
asS'ForTestersOnly3'
p692
(lp693
(S'messenger/MSN/MSNIncomingMSGPacket.java'
I128
tp694
asS'testmessenger::ICQ::ICQCLI_FAMILIESPacketTest.testGetContentHex()'
p695
(lp696
(S'testmessenger/ICQ/ICQCLI_FAMILIESPacketTest.java'
I82
tp697
asS'ForTestersOnly8'
p698
(lp699
(S'messenger/MSN/MSNPacketFactory.java'
I47
tp700
asS'ForTestersOnly9'
p701
(lp702
(S'messenger/MSN/MSNIncomingPacket.java'
I60
tp703
asS'testmessenger::ICQ::ICQSRV_FAMILIESPacketTest.tearDown()'
p704
(lp705
(S'testmessenger/ICQ/ICQSRV_FAMILIESPacketTest.java'
I62
tp706
asS'AssertionRoulette2'
p707
(lp708
(S'testmessenger/UtilsTest.java'
I113
tp709
asS'AssertionRoulette3'
p710
(lp711
(S'testmessenger/UtilsTest.java'
I137
tp712
asS'testmessenger::MSN::MSNIncomingLSTPacketTest.testContactNick()'
p713
(lp714
(S'testmessenger/MSN/MSNIncomingLSTPacketTest.java'
I54
tp715
asS'AssertionRoulette1'
p716
(lp717
(S'testmessenger/MSN/MSNIncomingNLNPacketTest.java'
I49
tp718
asS'testmessenger::MSN::MSNOutgoingPacketTest'
p719
(lp720
(S'testmessenger/MSN/MSNOutgoingPacketTest.java'
I0
tp721
asS'testmessenger::Yahoo::YahooSRV_MESSAGEPacketTest.testGetLogin()'
p722
(lp723
(S'testmessenger/Yahoo/YahooSRV_MESSAGEPacketTest.java'
I58
tp724
asS'testmessenger::MSN::MSNIncomingRNGPacketTest.testSwitchBoardIP()'
p725
(lp726
(S'testmessenger/MSN/MSNIncomingRNGPacketTest.java'
I59
tp727
asS'testmessenger::ICQ::ICQCLI_SENDMSGV1PacketTest.testGetKindOfPacket()'
p728
(lp729
(S'testmessenger/ICQ/ICQCLI_SENDMSGV1PacketTest.java'
I75
tp730
asS'testmessenger::ICQ::ICQSRV_FAMILIESPacketTest.testICQSRV_FAMILIESPacket()'
p731
(lp732
(S'testmessenger/ICQ/ICQSRV_FAMILIESPacketTest.java'
I66
tp733
asS'testmessenger::Yahoo::YahooSRV_AUTHPacketTest.setUp()'
p734
(lp735
(S'testmessenger/Yahoo/YahooSRV_AUTHPacketTest.java'
I56
tp736
asS'testmessenger::MSN::testMSNMessage.testAddProtocol()'
p737
(lp738
(S'testmessenger/MSN/testMSNMessage.java'
I45
tp739
asS'testmessenger::MSN::MSNIncomingCHGPacketTest.setUp()'
p740
(lp741
(S'testmessenger/MSN/MSNIncomingCHGPacketTest.java'
I59
tp742
asS'testmessenger::MSN::MSNOutgoingLSTPacketTest.setUp()'
p743
(lp744
(S'testmessenger/MSN/MSNOutgoingLSTPacketTest.java'
I55
tp745
asS'testmessenger::ICQ::ICQCLI_COOKIEPacketTest'
p746
(lp747
(S'testmessenger/ICQ/ICQCLI_COOKIEPacketTest.java'
I0
tp748
asS'testmessenger::ICQ::ICQCLI_REQICBMPacketTest'
p749
(lp750
(S'testmessenger/ICQ/ICQCLI_REQICBMPacketTest.java'
I0
tp751
asS'testmessenger::MSN::MSNOutgoingXFRPacketTest'
p752
(lp753
(S'testmessenger/MSN/MSNOutgoingXFRPacketTest.java'
I0
tp754
asS'testmessenger::ICQ::ICQCLI_ADDCONTACTPacketTest'
p755
(lp756
(S'testmessenger/ICQ/ICQCLI_ADDCONTACTPacketTest.java'
I0
tp757
asS'AssertionLess28'
p758
(lp759
(S'testmessenger/ICQ/ICQCLI_CONTACTTest.java'
I79
tp760
asS'AssertionLess29'
p761
(lp762
(S'testmessenger/ICQ/ICQSRV_RATESPacketTest.java'
I67
tp763
asS'testmessenger::ICQ::ICQCLI_SENDMSGV1PacketTest.testGetLength()'
p764
(lp765
(S'testmessenger/ICQ/ICQCLI_SENDMSGV1PacketTest.java'
I94
tp766
asS'testmessenger::ICQ::ICQCLI_SETICBMPacketTest.testGetLength()'
p767
(lp768
(S'testmessenger/ICQ/ICQCLI_SETICBMPacketTest.java'
I87
tp769
asS'AssertionLess22'
p770
(lp771
(S'testmessenger/MSN/MSNPacketTest.java'
I43
tp772
asS'AssertionLess23'
p773
(lp774
(S'testmessenger/UtilsTest.java'
I97
tp775
asS'AssertionLess20'
p776
(lp777
(S'testmessenger/ICQ/ICQCLI_ADDBUDDYPacketTest.java'
I100
tp778
asS'AssertionLess21'
p779
(lp780
(S'testmessenger/Yahoo/YahooSRV_LOGONPacketTest.java'
I33
tp781
asS'AssertionLess26'
p782
(lp783
(S'testmessenger/Yahoo/YahooSRV_AUTH_RESPPacketTest.java'
I44
tp784
asS'AssertionLess27'
p785
(lp786
(S'testmessenger/ICQ/ICQProtocolTest.java'
I117
tp787
asS'AssertionLess24'
p788
(lp789
(S'testmessenger/MSN/testMSNMessage.java'
I53
tp790
asS'AssertionLess25'
p791
(lp792
(S'testmessenger/ICQ/ICQCLI_IDENTPacketTest.java'
I69
tp793
asS'testmessenger::Yahoo::YahooSRV_AUTHPacketTest.testYahooSRV_AUTHPacket()'
p794
(lp795
(S'testmessenger/Yahoo/YahooSRV_AUTHPacketTest.java'
I67
tp796
asS'testmessenger::MSN::MSNOutgoingCALPacketTest.tearDown()'
p797
(lp798
(S'testmessenger/MSN/MSNOutgoingCALPacketTest.java'
I68
tp799
asS'testmessenger::Yahoo::YahooSRV_LOGOFFPacketTest.testGetContact()'
p800
(lp801
(S'testmessenger/Yahoo/YahooSRV_LOGOFFPacketTest.java'
I35
tp802
asS'testmessenger::MSN::MSNOutgoingUSRPacketTest.tearDown()'
p803
(lp804
(S'testmessenger/MSN/MSNOutgoingUSRPacketTest.java'
I69
tp805
asS'testmessenger::Yahoo::YahooContactTest.testGetUIN()'
p806
(lp807
(S'testmessenger/Yahoo/YahooContactTest.java'
I68
tp808
asS'testmessenger::MSN::MSNPacketTest'
p809
(lp810
(S'testmessenger/MSN/MSNPacketTest.java'
I0
tp811
asS'testmessenger::ICQ::ICQCLI_SENDMSGPacketTest.testGetLength()'
p812
(lp813
(S'testmessenger/ICQ/ICQCLI_SENDMSGPacketTest.java'
I96
tp814
asS'testmessenger::MSN::MSNIncomingVERPacketTest.tearDown()'
p815
(lp816
(S'testmessenger/MSN/MSNIncomingVERPacketTest.java'
I66
tp817
asS'testmessenger::ICQ::ICQProtocolTest.testSendMessage()'
p818
(lp819
(S'testmessenger/ICQ/ICQProtocolTest.java'
I108
tp820
asS'testmessenger::MSN::MSNPacketFactoryTest.testUnknownPacketException()'
p821
(lp822
(S'testmessenger/MSN/MSNPacketFactoryTest.java'
I101
tp823
asS'testmessenger::ICQ::ICQCLI_SENDMSGV1PacketTest.testICQCLI_SENDMSGV1Packet()'
p824
(lp825
(S'testmessenger/ICQ/ICQCLI_SENDMSGV1PacketTest.java'
I68
tp826
asS'testmessenger::MSN::MSNPacketFactoryTest.tearDown()'
p827
(lp828
(S'testmessenger/MSN/MSNPacketFactoryTest.java'
I144
tp829
asS'AssertionLess59'
p830
(lp831
(S'testmessenger/ICQ/ICQProtocolTest.java'
I105
tp832
asS'AssertionLess58'
p833
(lp834
(S'testmessenger/ICQ/ICQProtocolTest.java'
I138
tp835
asS'AssertionLess57'
p836
(lp837
(S'testmessenger/ICQ/ICQProtocolTest.java'
I126
tp838
asS'AssertionLess56'
p839
(lp840
(S'testmessenger/ICQ/ICQCLI_SENDMSGV1PacketTest.java'
I94
tp841
asS'AssertionLess55'
p842
(lp843
(S'testmessenger/UtilsTest.java'
I101
tp844
asS'AssertionLess54'
p845
(lp846
(S'testmessenger/Yahoo/YahooContactTest.java'
I86
tp847
asS'AssertionLess53'
p848
(lp849
(S'testmessenger/ICQ/ICQCLI_RATESREQUESTPacketTest.java'
I82
tp850
asS'AssertionLess52'
p851
(lp852
(S'testmessenger/ICQ/ICQProtocolTest.java'
I81
tp853
asS'AssertionLess51'
p854
(lp855
(S'testmessenger/MSN/testMSNMessage.java'
I45
tp856
asS'AssertionLess50'
p857
(lp858
(S'testmessenger/UtilsTest.java'
I109
tp859
asS'testmessenger::ICQ::ICQCLI_RATESREQUESTPacketTest'
p860
(lp861
(S'testmessenger/ICQ/ICQCLI_RATESREQUESTPacketTest.java'
I0
tp862
asS'testmessenger::ICQ::ICQCLI_GOODBYEPacketTest'
p863
(lp864
(S'testmessenger/ICQ/ICQCLI_GOODBYEPacketTest.java'
I0
tp865
asS'testmessenger::ICQ::ICQCLI_RATESREQUESTPacketTest.testICQCLI_RATESREQUESTPacket()'
p866
(lp867
(S'testmessenger/ICQ/ICQCLI_RATESREQUESTPacketTest.java'
I68
tp868
asS'testmessenger::MSN::MSNContactTest.testMSNContact()'
p869
(lp870
(S'testmessenger/MSN/MSNContactTest.java'
I46
tp871
asS'AssertionLess80'
p872
(lp873
(S'testmessenger/ICQ/ICQCLI_GOODBYEPacketTest.java'
I65
tp874
asS'testmessenger::ICQ::ICQCLI_REQBOSPacketTest.tearDown()'
p875
(lp876
(S'testmessenger/ICQ/ICQCLI_REQBOSPacketTest.java'
I60
tp877
asS'testmessenger::MSN::MSNOutgoingADDPacketTest.tearDown()'
p878
(lp879
(S'testmessenger/MSN/MSNOutgoingADDPacketTest.java'
I69
tp880
asS'testmessenger::ICQ::ICQSRV_FAMILIES2PacketTest.tearDown()'
p881
(lp882
(S'testmessenger/ICQ/ICQSRV_FAMILIES2PacketTest.java'
I62
tp883
asS'testmessenger::MSN::MSNIncomingCHLPacketTest'
p884
(lp885
(S'testmessenger/MSN/MSNIncomingCHLPacketTest.java'
I0
tp886
asS'testmessenger::MSN::MSNIncomingFLNPacketTest.testContent()'
p887
(lp888
(S'testmessenger/MSN/MSNIncomingFLNPacketTest.java'
I49
tp889
asS'EmptyTest35'
p890
(lp891
(S'testmessenger/ICQ/ICQProtocolTest.java'
I66
tp892
asS'EmptyTest34'
p893
(lp894
(S'testmessenger/ICQ/ICQCLI_GOODBYEPacketTest.java'
I65
tp895
asS'EmptyTest37'
p896
(lp897
(S'testmessenger/ICQ/ICQProtocolTest.java'
I123
tp898
asS'EmptyTest36'
p899
(lp900
(S'testmessenger/ICQ/ICQSRV_HELLOPacketTest.java'
I72
tp901
asS'EmptyTest31'
p902
(lp903
(S'testmessenger/ICQ/ICQCLI_RATESREQUESTPacketTest.java'
I71
tp904
asS'EmptyTest30'
p905
(lp906
(S'testmessenger/UtilsTest.java'
I159
tp907
asS'EmptyTest33'
p908
(lp909
(S'testmessenger/ICQ/ICQProtocolTest.java'
I135
tp910
asS'EmptyTest32'
p911
(lp912
(S'testmessenger/ICQ/ICQProtocolTest.java'
I84
tp913
asS'testmessenger::Yahoo::YahooContactTest'
p914
(lp915
(S'testmessenger/Yahoo/YahooContactTest.java'
I0
tp916
asS'EmptyTest39'
p917
(lp918
(S'testmessenger/Yahoo/YahooContactTest.java'
I77
tp919
asS'EmptyTest38'
p920
(lp921
(S'testmessenger/ICQ/ICQProtocolTest.java'
I132
tp922
asS'testmessenger::Yahoo::YahooSRV_LISTPacketTest.testYahooSRV_LISTPacket()'
p923
(lp924
(S'testmessenger/Yahoo/YahooSRV_LISTPacketTest.java'
I53
tp925
asS'testmessenger::MSN::MSNIncomingCHLPacketTest.tearDown()'
p926
(lp927
(S'testmessenger/MSN/MSNIncomingCHLPacketTest.java'
I62
tp928
asS'testmessenger::ICQ::ICQCLI_ADDCONTACTPacketTest.testICQCLI_ADDCONTACTPacket()'
p929
(lp930
(S'testmessenger/ICQ/ICQCLI_ADDCONTACTPacketTest.java'
I68
tp931
asS'AssertionLess9'
p932
(lp933
(S'testmessenger/ICQ/ICQSRV_REPLYROSTERPacketTest.java'
I67
tp934
asS'AssertionLess8'
p935
(lp936
(S'testmessenger/ICQ/ICQProtocolTest.java'
I84
tp937
asS'testmessenger::MSN::MSNContactTest'
p938
(lp939
(S'testmessenger/MSN/MSNContactTest.java'
I0
tp940
asS'testmessenger::ICQ::ICQCLI_SETSTATUSPacketTest.setUp()'
p941
(lp942
(S'testmessenger/ICQ/ICQCLI_SETSTATUSPacketTest.java'
I53
tp943
asS'AssertionLess3'
p944
(lp945
(S'testmessenger/ICQ/ICQProtocolTest.java'
I111
tp946
asS'AssertionLess2'
p947
(lp948
(S'testmessenger/MSN/testMSNMessage.java'
I49
tp949
asS'AssertionLess1'
p950
(lp951
(S'testmessenger/MSN/MSNOutgoingPacketTest.java'
I42
tp952
asS'AssertionLess0'
p953
(lp954
(S'testmessenger/Yahoo/YahooContactTest.java'
I52
tp955
asS'AssertionLess7'
p956
(lp957
(S'testmessenger/ICQ/ICQCLI_SENDMSGPacketTest.java'
I86
tp958
asS'AssertionLess6'
p959
(lp960
(S'testmessenger/ICQ/ICQProtocolTest.java'
I78
tp961
asS'AssertionLess5'
p962
(lp963
(S'testmessenger/ICQ/ICQCLI_REQROSTERPacketTest.java'
I68
tp964
asS'AssertionLess4'
p965
(lp966
(S'testmessenger/ICQ/ICQSRV_FAMILIES2PacketTest.java'
I66
tp967
asS'testmessenger::ICQ::ICQSRV_HELLOPacketTest'
p968
(lp969
(S'testmessenger/ICQ/ICQSRV_HELLOPacketTest.java'
I0
tp970
asS'testmessenger::ICQ::ICQCLI_REQROSTERPacketTest'
p971
(lp972
(S'testmessenger/ICQ/ICQCLI_REQROSTERPacketTest.java'
I0
tp973
asS'testmessenger::ICQ::ICQProtocolTest.testShutdown()'
p974
(lp975
(S'testmessenger/ICQ/ICQProtocolTest.java'
I129
tp976
asS'testmessenger::UtilsTest.testHexToByte()'
p977
(lp978
(S'testmessenger/UtilsTest.java'
I105
tp979
asS'testmessenger::ICQ::ICQProtocolTest.setUp()'
p980
(lp981
(S'testmessenger/ICQ/ICQProtocolTest.java'
I55
tp982
asS'testmessenger::ICQ::ICQSRV_RATESPacketTest.testGetKindOfPacket()'
p983
(lp984
(S'testmessenger/ICQ/ICQSRV_RATESPacketTest.java'
I71
tp985
asS'testmessenger::UtilsTest.testUIN()'
p986
(lp987
(S'testmessenger/UtilsTest.java'
I163
tp988
asS'testmessenger::ICQ::ICQCLI_IDENTPacketTest.testGetKindOfPacket()'
p989
(lp990
(S'testmessenger/ICQ/ICQCLI_IDENTPacketTest.java'
I89
tp991
asS'testmessenger::Yahoo::YahooContactTest.testSetLogin()'
p992
(lp993
(S'testmessenger/Yahoo/YahooContactTest.java'
I52
tp994
asS'testmessenger::MSN::MSNOutgoingPacketTest.testSomething()'
p995
(lp996
(S'testmessenger/MSN/MSNOutgoingPacketTest.java'
I42
tp997
asS'testmessenger::ICQ::ICQSRV_RATESPacketTest'
p998
(lp999
(S'testmessenger/ICQ/ICQSRV_RATESPacketTest.java'
I0
tp1000
asS'testmessenger::ICQ::ICQCLI_READYPacketTest.testGetContentHex()'
p1001
(lp1002
(S'testmessenger/ICQ/ICQCLI_READYPacketTest.java'
I81
tp1003
asS'testmessenger::MSN::MSNIncomingRNGPacketTest.testContact()'
p1004
(lp1005
(S'testmessenger/MSN/MSNIncomingRNGPacketTest.java'
I70
tp1006
asS'testmessenger::MSN::MSNOutgoingMSGPacketTest'
p1007
(lp1008
(S'testmessenger/MSN/MSNOutgoingMSGPacketTest.java'
I0
tp1009
asS'testmessenger::MSN::MSNIncomingXFRPacketTest'
p1010
(lp1011
(S'testmessenger/MSN/MSNIncomingXFRPacketTest.java'
I0
tp1012
asS'testmessenger::ICQ::ICQCLI_IDENTPacketTest.testGetLength()'
p1013
(lp1014
(S'testmessenger/ICQ/ICQCLI_IDENTPacketTest.java'
I135
tp1015
asS'testmessenger::ICQ::ICQCLI_ADDCONTACTPacketTest.tearDown()'
p1016
(lp1017
(S'testmessenger/ICQ/ICQCLI_ADDCONTACTPacketTest.java'
I64
tp1018
asS'testmessenger::ICQ::ICQCLI_IDENTPacketTest.tearDown()'
p1019
(lp1020
(S'testmessenger/ICQ/ICQCLI_IDENTPacketTest.java'
I61
tp1021
asS'testmessenger::MSN::MSNPacketFactoryTest.testOutgoing()'
p1022
(lp1023
(S'testmessenger/MSN/MSNPacketFactoryTest.java'
I49
tp1024
asS'testmessenger::MSN::MSNOutgoingXFRPacketTest.tearDown()'
p1025
(lp1026
(S'testmessenger/MSN/MSNOutgoingXFRPacketTest.java'
I67
tp1027
asS'testmessenger::MSN::MSNIncomingUSRPacketTest'
p1028
(lp1029
(S'testmessenger/MSN/MSNIncomingUSRPacketTest.java'
I0
tp1030
asS'testmessenger::MSN::MSNContactTest.setUp()'
p1031
(lp1032
(S'testmessenger/MSN/MSNContactTest.java'
I42
tp1033
asS'testmessenger::MSN::MSNOutgoingUSRPacketTest'
p1034
(lp1035
(S'testmessenger/MSN/MSNOutgoingUSRPacketTest.java'
I0
tp1036
asS'DuplicatedCode0'
p1037
(lp1038
(S'testmessenger/ICQ/ICQSRV_REPLYROSTERPacketTest.java'
p1039
I75
I78
tp1040
a(S'testmessenger/ICQ/ICQSRV_REPLYROSTERPacketTest.java'
p1041
I79
I82
tp1042
asS'testmessenger::ICQ::ICQCLI_RATESREQUESTPacketTest.tearDown()'
p1043
(lp1044
(S'testmessenger/ICQ/ICQCLI_RATESREQUESTPacketTest.java'
I60
tp1045
asS'testmessenger::MSN::MSNIncomingMSGPacketTest.setUp()'
p1046
(lp1047
(S'testmessenger/MSN/MSNIncomingMSGPacketTest.java'
I71
tp1048
asS'testmessenger::MSN::MSNIncomingQRYPacketTest.tearDown()'
p1049
(lp1050
(S'testmessenger/MSN/MSNIncomingQRYPacketTest.java'
I66
tp1051
asS'testmessenger::MSN::MSNOutgoingCALPacketTest.setUp()'
p1052
(lp1053
(S'testmessenger/MSN/MSNOutgoingCALPacketTest.java'
I55
tp1054
asS'testmessenger::MSN::MSNIncomingFLNPacketTest.setUp()'
p1055
(lp1056
(S'testmessenger/MSN/MSNIncomingFLNPacketTest.java'
I66
tp1057
asS'testmessenger::MSN::MSNIncomingILNPacketTest.tearDown()'
p1058
(lp1059
(S'testmessenger/MSN/MSNIncomingILNPacketTest.java'
I81
tp1060
asS'testmessenger::MSN::MSNIncomingRNGPacketTest.testNick()'
p1061
(lp1062
(S'testmessenger/MSN/MSNIncomingRNGPacketTest.java'
I75
tp1063
asS'testmessenger::ICQ::ICQCLI_ACKRATESPacketTest.testGetKindOfPacket()'
p1064
(lp1065
(S'testmessenger/ICQ/ICQCLI_ACKRATESPacketTest.java'
I75
tp1066
asS'testmessenger::MSN::MSNOutgoingVERPacketTest'
p1067
(lp1068
(S'testmessenger/MSN/MSNOutgoingVERPacketTest.java'
I0
tp1069
asS'testmessenger::ICQ::ICQCLI_REQLISTSPacketTest.setUp()'
p1070
(lp1071
(S'testmessenger/ICQ/ICQCLI_REQLISTSPacketTest.java'
I54
tp1072
asS'testmessenger::MSN::MSNProtocolTest.testSomething()'
p1073
(lp1074
(S'testmessenger/MSN/MSNProtocolTest.java'
I42
tp1075
asS'testmessenger::UtilsTest.setUp()'
p1076
(lp1077
(S'testmessenger/UtilsTest.java'
I38
tp1078
asS'testmessenger::MSN::MSNIncomingINFPacketTest.setUp()'
p1079
(lp1080
(S'testmessenger/MSN/MSNIncomingINFPacketTest.java'
I61
tp1081
asS'AssertionLess13'
p1082
(lp1083
(S'testmessenger/ICQ/ICQProtocolTest.java'
I123
tp1084
asS'AssertionLess12'
p1085
(lp1086
(S'testmessenger/ICQ/ICQProtocolTest.java'
I99
tp1087
asS'AssertionLess11'
p1088
(lp1089
(S'testmessenger/Yahoo/YahooSRV_MESSAGEPacketTest.java'
I52
tp1090
asS'AssertionLess10'
p1091
(lp1092
(S'testmessenger/ICQ/ICQProtocolTest.java'
I135
tp1093
asS'AssertionLess17'
p1094
(lp1095
(S'testmessenger/ICQ/ICQProtocolTest.java'
I114
tp1096
asS'AssertionLess16'
p1097
(lp1098
(S'testmessenger/ICQ/ICQProtocolTest.java'
I141
tp1099
asS'AssertionLess15'
p1100
(lp1101
(S'testmessenger/ICQ/ICQProtocolTest.java'
I72
tp1102
asS'AssertionLess14'
p1103
(lp1104
(S'testmessenger/Yahoo/YahooContactTest.java'
I83
tp1105
asS'testmessenger::MSN::MSNPacketTest.testContent()'
p1106
(lp1107
(S'testmessenger/MSN/MSNPacketTest.java'
I43
tp1108
asS'testmessenger::UtilsTest.testHexFromString()'
p1109
(lp1110
(S'testmessenger/UtilsTest.java'
I97
tp1111
asS'testmessenger::MSN::MSNIncomingNLNPacketTest.setUp()'
p1112
(lp1113
(S'testmessenger/MSN/MSNIncomingNLNPacketTest.java'
I101
tp1114
asS'testmessenger::MSN::MSNIncomingFLNPacketTest.tearDown()'
p1115
(lp1116
(S'testmessenger/MSN/MSNIncomingFLNPacketTest.java'
I76
tp1117
asS'testmessenger::ICQ::ICQCLI_RATESREQUESTPacketTest.setUp()'
p1118
(lp1119
(S'testmessenger/ICQ/ICQCLI_RATESREQUESTPacketTest.java'
I53
tp1120
asS'testmessenger::ICQ::ICQCLI_SETSTATUSPacketTest.testGetContentHex()'
p1121
(lp1122
(S'testmessenger/ICQ/ICQCLI_SETSTATUSPacketTest.java'
I93
tp1123
asS'testmessenger::ICQ::ICQCLI_SENDMSGPacketTest.testGetKindOfPacket()'
p1124
(lp1125
(S'testmessenger/ICQ/ICQCLI_SENDMSGPacketTest.java'
I77
tp1126
asS'testmessenger::MSN::MSNIncomingXFRPacketTest.setUp()'
p1127
(lp1128
(S'testmessenger/MSN/MSNIncomingXFRPacketTest.java'
I66
tp1129
asS'testmessenger::ICQ::ICQCLI_REQBOSPacketTest.testICQCLI_REQBOSPacket()'
p1130
(lp1131
(S'testmessenger/ICQ/ICQCLI_REQBOSPacketTest.java'
I68
tp1132
asS'testmessenger::ICQ::ICQCLI_ADDBUDDYPacketTest'
p1133
(lp1134
(S'testmessenger/ICQ/ICQCLI_ADDBUDDYPacketTest.java'
I0
tp1135
asS'testmessenger::ICQ::ICQCLI_GOODBYEPacketTest.testGetKindOfPacket()'
p1136
(lp1137
(S'testmessenger/ICQ/ICQCLI_GOODBYEPacketTest.java'
I62
tp1138
asS'testmessenger::Yahoo::YahooSRV_LISTPacketTest.testGetLength()'
p1139
(lp1140
(S'testmessenger/Yahoo/YahooSRV_LISTPacketTest.java'
I91
tp1141
asS'testmessenger::MSN::MSNIncomingMSGPacketTest.testType()'
p1142
(lp1143
(S'testmessenger/MSN/MSNIncomingMSGPacketTest.java'
I60
tp1144
asS'testmessenger::MSN::MSNOutgoingQRYPacketTest'
p1145
(lp1146
(S'testmessenger/MSN/MSNOutgoingQRYPacketTest.java'
I0
tp1147
asS'VerboseTest4'
p1148
(lp1149
(S'testmessenger/UtilsTest.java'
I137
tp1150
asS'testmessenger::Yahoo::YahooSRV_AUTHPacketTest'
p1151
(lp1152
(S'testmessenger/Yahoo/YahooSRV_AUTHPacketTest.java'
I0
tp1153
asS'testmessenger::ICQ::ICQCLI_GOODBYEPacketTest.setUp()'
p1154
(lp1155
(S'testmessenger/ICQ/ICQCLI_GOODBYEPacketTest.java'
I51
tp1156
asS'testmessenger::ICQ::ICQSRV_RATESPacketTest.setUp()'
p1157
(lp1158
(S'testmessenger/ICQ/ICQSRV_RATESPacketTest.java'
I52
tp1159
asS'testmessenger::MSN::MSNOutgoingVERPacketTest.setUp()'
p1160
(lp1161
(S'testmessenger/MSN/MSNOutgoingVERPacketTest.java'
I55
tp1162
asS'testmessenger::ICQ::ICQSRV_FAMILIESPacketTest.setUp()'
p1163
(lp1164
(S'testmessenger/ICQ/ICQSRV_FAMILIESPacketTest.java'
I55
tp1165
asS'testmessenger::MSN::MSNIncomingLSTPacketTest'
p1166
(lp1167
(S'testmessenger/MSN/MSNIncomingLSTPacketTest.java'
I0
tp1168
asS'testmessenger::ICQ::ICQCLI_REQBUDDYPacketTest.testGetLength()'
p1169
(lp1170
(S'testmessenger/ICQ/ICQCLI_REQBUDDYPacketTest.java'
I89
tp1171
asS'testmessenger::ICQ::ICQCLI_SETSTATUSPacketTest.tearDown()'
p1172
(lp1173
(S'testmessenger/ICQ/ICQCLI_SETSTATUSPacketTest.java'
I60
tp1174
asS'testmessenger::MSN::MSNPacketFactoryTest.testIncomingErrorCode()'
p1175
(lp1176
(S'testmessenger/MSN/MSNPacketFactoryTest.java'
I88
tp1177
asS'testmessenger::MSN::MSNOutgoingADDPacketTest.testContent()'
p1178
(lp1179
(S'testmessenger/MSN/MSNOutgoingADDPacketTest.java'
I44
tp1180
asS'testmessenger::MSN::MSNIncomingQRYPacketTest.setUp()'
p1181
(lp1182
(S'testmessenger/MSN/MSNIncomingQRYPacketTest.java'
I56
tp1183
asS'testmessenger::ICQ::ICQCLI_CONTACTTest'
p1184
(lp1185
(S'testmessenger/ICQ/ICQCLI_CONTACTTest.java'
I0
tp1186
asS'EmptyTest26'
p1187
(lp1188
(S'testmessenger/ICQ/ICQCLI_GOODBYEPacketTest.java'
I62
tp1189
asS'testmessenger::ICQ::ICQCLI_REQBOSPacketTest.testGetKindOfPacket()'
p1190
(lp1191
(S'testmessenger/ICQ/ICQCLI_REQBOSPacketTest.java'
I74
tp1192
asS'testmessenger::UtilsTest.testEncryptPass()'
p1193
(lp1194
(S'testmessenger/UtilsTest.java'
I159
tp1195
asS'testmessenger::MSN::MSNOutgoingMSGPacketTest.setUp()'
p1196
(lp1197
(S'testmessenger/MSN/MSNOutgoingMSGPacketTest.java'
I62
tp1198
asS'testmessenger::ICQ::ICQCLI_ACKRATESPacketTest'
p1199
(lp1200
(S'testmessenger/ICQ/ICQCLI_ACKRATESPacketTest.java'
I0
tp1201
asS'testmessenger::ICQ::ICQSRV_REPLYROSTERPacketTest.testICQSRV_REPLYROSTERPacket()'
p1202
(lp1203
(S'testmessenger/ICQ/ICQSRV_REPLYROSTERPacketTest.java'
I67
tp1204
asS'testmessenger::MSN::MSNIncomingILNPacketTest.testStatus()'
p1205
(lp1206
(S'testmessenger/MSN/MSNIncomingILNPacketTest.java'
I49
tp1207
asS'testmessenger::ICQ::ICQProtocolTest.testLogout()'
p1208
(lp1209
(S'testmessenger/ICQ/ICQProtocolTest.java'
I126
tp1210
asS'testmessenger::ICQ::ICQProtocolTest.testDisconnect()'
p1211
(lp1212
(S'testmessenger/ICQ/ICQProtocolTest.java'
I138
tp1213
asS'testmessenger::ICQ::ICQCLI_SETICBMPacketTest.testGetKindOfPacket()'
p1214
(lp1215
(S'testmessenger/ICQ/ICQCLI_SETICBMPacketTest.java'
I73
tp1216
asS'testmessenger::MSN::MSNSessionTest.setUp()'
p1217
(lp1218
(S'testmessenger/MSN/MSNSessionTest.java'
I52
tp1219
asS'testmessenger::ICQ::ICQCLI_REQBUDDYPacketTest.testGetContentHex()'
p1220
(lp1221
(S'testmessenger/ICQ/ICQCLI_REQBUDDYPacketTest.java'
I81
tp1222
asS'ProjectSourceRootDirectory'
p1223
S'/home/nix/JaarProject/SmellsGgl/sample/anastacia/anastacia/'
p1224
sS'testmessenger::ICQ::ICQCLI_REQICBMPacketTest.testICQCLI_REQICBMPacket()'
p1225
(lp1226
(S'testmessenger/ICQ/ICQCLI_REQICBMPacketTest.java'
I67
tp1227
asS'testmessenger::MSN::MSNIncomingQRYPacketTest'
p1228
(lp1229
(S'testmessenger/MSN/MSNIncomingQRYPacketTest.java'
I0
tp1230
asS'testmessenger::MSN::MSNOutgoingUSRSPacketTest'
p1231
(lp1232
(S'testmessenger/MSN/MSNOutgoingUSRSPacketTest.java'
I0
tp1233
asS'testmessenger::MSN::MSNOutgoingLSTPacketTest.tearDown()'
p1234
(lp1235
(S'testmessenger/MSN/MSNOutgoingLSTPacketTest.java'
I67
tp1236
asS'testmessenger::ICQ::ICQCLI_REQBOSPacketTest'
p1237
(lp1238
(S'testmessenger/ICQ/ICQCLI_REQBOSPacketTest.java'
I0
tp1239
asS'testmessenger::ICQ::ICQSRV_REPLYROSTERPacketTest.setUp()'
p1240
(lp1241
(S'testmessenger/ICQ/ICQSRV_REPLYROSTERPacketTest.java'
I52
tp1242
asS'testmessenger::ICQ::ICQCLI_REQROSTERPacketTest.setUp()'
p1243
(lp1244
(S'testmessenger/ICQ/ICQCLI_REQROSTERPacketTest.java'
I53
tp1245
asS'testmessenger::MSN::MSNOutgoingUSRSPacketTest.testContent()'
p1246
(lp1247
(S'testmessenger/MSN/MSNOutgoingUSRSPacketTest.java'
I44
tp1248
asS'testmessenger::ICQ::ICQCLI_REQINFOPacketTest.testICQCLI_REQINFOPacket()'
p1249
(lp1250
(S'testmessenger/ICQ/ICQCLI_REQINFOPacketTest.java'
I68
tp1251
asS'testmessenger::MSN::MSNOutgoingMSGPacketTest.tearDown()'
p1252
(lp1253
(S'testmessenger/MSN/MSNOutgoingMSGPacketTest.java'
I74
tp1254
asS'testmessenger::ICQ::ICQCLI_REQLOCATIONPacketTest.setUp()'
p1255
(lp1256
(S'testmessenger/ICQ/ICQCLI_REQLOCATIONPacketTest.java'
I54
tp1257
asS'testmessenger::MSN::MSNOutgoingANSPacketTest.setUp()'
p1258
(lp1259
(S'testmessenger/MSN/MSNOutgoingANSPacketTest.java'
I55
tp1260
asS'testmessenger::MSN::MSNIncomingCHLPacketTest.testContent()'
p1261
(lp1262
(S'testmessenger/MSN/MSNIncomingCHLPacketTest.java'
I43
tp1263
asS'testmessenger::ICQ::ICQCLI_REQLISTSPacketTest.testGetLength()'
p1264
(lp1265
(S'testmessenger/ICQ/ICQCLI_REQLISTSPacketTest.java'
I90
tp1266
asS'testmessenger::MSN::MSNIncomingRNGPacketTest'
p1267
(lp1268
(S'testmessenger/MSN/MSNIncomingRNGPacketTest.java'
I0
tp1269
asS'testmessenger::ICQ::ICQCLI_READYPacketTest.setUp()'
p1270
(lp1271
(S'testmessenger/ICQ/ICQCLI_READYPacketTest.java'
I52
tp1272
asS'testmessenger::ICQ::ICQCLI_REQBUDDYPacketTest'
p1273
(lp1274
(S'testmessenger/ICQ/ICQCLI_REQBUDDYPacketTest.java'
I0
tp1275
asS'testmessenger::MSN::MSNIncomingINFPacketTest'
p1276
(lp1277
(S'testmessenger/MSN/MSNIncomingINFPacketTest.java'
I0
tp1278
asS'testmessenger::ICQ::ICQSRV_HELLOPacketTest.testICQSRV_HELLOPacket()'
p1279
(lp1280
(S'testmessenger/ICQ/ICQSRV_HELLOPacketTest.java'
I65
tp1281
asS'testmessenger::MSN::MSNOutgoingUSRSPacketTest.tearDown()'
p1282
(lp1283
(S'testmessenger/MSN/MSNOutgoingUSRSPacketTest.java'
I69
tp1284
asS'testmessenger::MSN::MSNPacketTest.tearDown()'
p1285
(lp1286
(S'testmessenger/MSN/MSNPacketTest.java'
I63
tp1287
asS'testmessenger::ICQ::ICQCLI_REQICBMPacketTest.testGetKindOfPacket()'
p1288
(lp1289
(S'testmessenger/ICQ/ICQCLI_REQICBMPacketTest.java'
I73
tp1290
asS'testmessenger::Yahoo::YahooSRV_LOGOFFPacketTest.testGetContentHex()'
p1291
(lp1292
(S'testmessenger/Yahoo/YahooSRV_LOGOFFPacketTest.java'
I50
tp1293
asS'AssertionLess49'
p1294
(lp1295
(S'testmessenger/ICQ/ICQSRV_HELLOPacketTest.java'
I75
tp1296
asS'AssertionLess44'
p1297
(lp1298
(S'testmessenger/ICQ/ICQCLI_ADDCONTACTPacketTest.java'
I82
tp1299
asS'AssertionLess45'
p1300
(lp1301
(S'testmessenger/Yahoo/YahooContactTest.java'
I71
tp1302
asS'AssertionLess46'
p1303
(lp1304
(S'testmessenger/UtilsTest.java'
I159
tp1305
asS'AssertionLess47'
p1306
(lp1307
(S'testmessenger/ICQ/ICQSRV_FAMILIESPacketTest.java'
I66
tp1308
asS'AssertionLess40'
p1309
(lp1310
(S'testmessenger/ICQ/ICQCLI_READYPacketTest.java'
I68
tp1311
asS'AssertionLess41'
p1312
(lp1313
(S'testmessenger/Yahoo/YahooContactTest.java'
I80
tp1314
asS'AssertionLess42'
p1315
(lp1316
(S'testmessenger/ICQ/ICQCLI_CONTACTTest.java'
I71
tp1317
asS'AssertionLess43'
p1318
(lp1319
(S'testmessenger/ICQ/ICQCLI_SENDMSGV1PacketTest.java'
I84
tp1320
asS'testmessenger::MSN::MSNIncomingRNGPacketTest.tearDown()'
p1321
(lp1322
(S'testmessenger/MSN/MSNIncomingRNGPacketTest.java'
I97
tp1323
asS'testmessenger::MSN::MSNIncomingRNGPacketTest.testContent()'
p1324
(lp1325
(S'testmessenger/MSN/MSNIncomingRNGPacketTest.java'
I49
tp1326
asS'testmessenger::ICQ::ICQCLI_COOKIEPacketTest.tearDown()'
p1327
(lp1328
(S'testmessenger/ICQ/ICQCLI_COOKIEPacketTest.java'
I60
tp1329
asS'testmessenger::ICQ::ICQCLI_REQINFOPacketTest.setUp()'
p1330
(lp1331
(S'testmessenger/ICQ/ICQCLI_REQINFOPacketTest.java'
I53
tp1332
asS'testmessenger::UtilsTest.testIntToHex()'
p1333
(lp1334
(S'testmessenger/UtilsTest.java'
I113
tp1335
asS'testmessenger::ICQ::ICQProtocolTest.testGetNumberOfContacts()'
p1336
(lp1337
(S'testmessenger/ICQ/ICQProtocolTest.java'
I87
tp1338
asS'EmptyTest28'
p1339
(lp1340
(S'testmessenger/ICQ/ICQProtocolTest.java'
I105
tp1341
asS'EmptyTest29'
p1342
(lp1343
(S'testmessenger/MSN/testMSNMessage.java'
I57
tp1344
asS'EmptyTest22'
p1345
(lp1346
(S'testmessenger/ICQ/ICQSRV_HELLOPacketTest.java'
I65
tp1347
asS'EmptyTest23'
p1348
(lp1349
(S'testmessenger/UtilsTest.java'
I101
tp1350
asS'EmptyTest20'
p1351
(lp1352
(S'testmessenger/ICQ/ICQSRV_FAMILIES2PacketTest.java'
I66
tp1353
asS'EmptyTest21'
p1354
(lp1355
(S'testmessenger/MSN/MSNSessionTest.java'
I41
tp1356
asS'testmessenger::ICQ::ICQCLI_REQLOCATIONPacketTest.testGetLength()'
p1357
(lp1358
(S'testmessenger/ICQ/ICQCLI_REQLOCATIONPacketTest.java'
I83
tp1359
asS'EmptyTest27'
p1360
(lp1361
(S'testmessenger/ICQ/ICQProtocolTest.java'
I138
tp1362
asS'EmptyTest24'
p1363
(lp1364
(S'testmessenger/ICQ/ICQProtocolTest.java'
I87
tp1365
asS'EmptyTest25'
p1366
(lp1367
(S'testmessenger/ICQ/ICQProtocolTest.java'
I126
tp1368
asS'testmessenger::ICQ::ICQCLI_REQLISTSPacketTest'
p1369
(lp1370
(S'testmessenger/ICQ/ICQCLI_REQLISTSPacketTest.java'
I0
tp1371
asS'testmessenger::ICQ::ICQCLI_REQICBMPacketTest.testGetLength()'
p1372
(lp1373
(S'testmessenger/ICQ/ICQCLI_REQICBMPacketTest.java'
I88
tp1374
asS'testmessenger::ICQ::ICQCLI_REQICBMPacketTest.setUp()'
p1375
(lp1376
(S'testmessenger/ICQ/ICQCLI_REQICBMPacketTest.java'
I52
tp1377
asS'testmessenger::MSN::MSNIncomingRNGPacketTest.setUp()'
p1378
(lp1379
(S'testmessenger/MSN/MSNIncomingRNGPacketTest.java'
I87
tp1380
asS'testmessenger::MSN::MSNOutgoingPacketTest.tearDown()'
p1381
(lp1382
(S'testmessenger/MSN/MSNOutgoingPacketTest.java'
I60
tp1383
asS'testmessenger::Yahoo::YahooContactTest.testGetIP()'
p1384
(lp1385
(S'testmessenger/Yahoo/YahooContactTest.java'
I71
tp1386
asS'testmessenger::ICQ::ICQCLI_COOKIEPacketTest.testGetContentHex()'
p1387
(lp1388
(S'testmessenger/ICQ/ICQCLI_COOKIEPacketTest.java'
I84
tp1389
asS'testmessenger::ICQ::ICQCLI_ADDBUDDYPacketTest.testGetContentHex()'
p1390
(lp1391
(S'testmessenger/ICQ/ICQCLI_ADDBUDDYPacketTest.java'
I97
tp1392
asS'testmessenger::ICQ::ICQCLI_REQICBMPacketTest.testGetContentHex()'
p1393
(lp1394
(S'testmessenger/ICQ/ICQCLI_REQICBMPacketTest.java'
I80
tp1395
asS'testmessenger::Yahoo::YahooSRV_LOGONPacketTest'
p1396
(lp1397
(S'testmessenger/Yahoo/YahooSRV_LOGONPacketTest.java'
I0
tp1398
asS'testmessenger::UtilsTest.testFromHexString()'
p1399
(lp1400
(S'testmessenger/UtilsTest.java'
I49
tp1401
asS'testmessenger::Yahoo::YahooSRV_AUTH_RESPPacketTest'
p1402
(lp1403
(S'testmessenger/Yahoo/YahooSRV_AUTH_RESPPacketTest.java'
I0
tp1404
asS'testmessenger::ICQ::ICQCLI_REQBUDDYPacketTest.tearDown()'
p1405
(lp1406
(S'testmessenger/ICQ/ICQCLI_REQBUDDYPacketTest.java'
I60
tp1407
asS'testmessenger::ICQ::ICQSRV_HELLOPacketTest.testGetKindOfPacket()'
p1408
(lp1409
(S'testmessenger/ICQ/ICQSRV_HELLOPacketTest.java'
I69
tp1410
asS'testmessenger::MSN::MSNIncomingFLNPacketTest'
p1411
(lp1412
(S'testmessenger/MSN/MSNIncomingFLNPacketTest.java'
I0
tp1413
asS'testmessenger::MSN::MSNIncomingNLNPacketTest.tearDown()'
p1414
(lp1415
(S'testmessenger/MSN/MSNIncomingNLNPacketTest.java'
I111
tp1416
asS'testmessenger::ICQ::ICQCLI_REQROSTERPacketTest.testICQCLI_REQROSTERPacket()'
p1417
(lp1418
(S'testmessenger/ICQ/ICQCLI_REQROSTERPacketTest.java'
I68
tp1419
asS'AssertionLess79'
p1420
(lp1421
(S'testmessenger/ICQ/ICQCLI_ADDCONTACTPacketTest.java'
I68
tp1422
asS'EmptyTest40'
p1423
(lp1424
(S'testmessenger/Yahoo/YahooContactTest.java'
I83
tp1425
asS'testmessenger::ICQ::ICQCLI_SETSTATUSPacketTest.testICQCLI_SETSTATUSPacket()'
p1426
(lp1427
(S'testmessenger/ICQ/ICQCLI_SETSTATUSPacketTest.java'
I68
tp1428
asS'testmessenger::MSN::MSNIncomingLSTPacketTest.testTotalNrOfContacts()'
p1429
(lp1430
(S'testmessenger/MSN/MSNIncomingLSTPacketTest.java'
I64
tp1431
asS'testmessenger::ICQ::ICQProtocolTest.testICQProtocolStringString()'
p1432
(lp1433
(S'testmessenger/ICQ/ICQProtocolTest.java'
I78
tp1434
asS'testmessenger::ICQ::ICQCLI_REQBOSPacketTest.testGetContentHex()'
p1435
(lp1436
(S'testmessenger/ICQ/ICQCLI_REQBOSPacketTest.java'
I81
tp1437
asS'testmessenger::MSN::MSNSessionTest.tearDown()'
p1438
(lp1439
(S'testmessenger/MSN/MSNSessionTest.java'
I59
tp1440
asS'EmptyTest42'
p1441
(lp1442
(S'testmessenger/ICQ/ICQProtocolTest.java'
I72
tp1443
asS'testmessenger::MSN::MSNOutgoingVERPacketTest.tearDown()'
p1444
(lp1445
(S'testmessenger/MSN/MSNOutgoingVERPacketTest.java'
I67
tp1446
asS'testmessenger::ICQ::ICQProtocolTest.testIsConnected()'
p1447
(lp1448
(S'testmessenger/ICQ/ICQProtocolTest.java'
I84
tp1449
asS'testmessenger::MSN::MSNIncomingVERPacketTest'
p1450
(lp1451
(S'testmessenger/MSN/MSNIncomingVERPacketTest.java'
I0
tp1452
asS'testmessenger::ICQ::ICQSRV_REPLYROSTERPacketTest.testGetContentHex()'
p1453
(lp1454
(S'testmessenger/ICQ/ICQSRV_REPLYROSTERPacketTest.java'
I104
tp1455
asS'testmessenger::Yahoo::YahooSRV_MESSAGEPacketTest.testYahooSRV_MESSAGEPacket()'
p1456
(lp1457
(S'testmessenger/Yahoo/YahooSRV_MESSAGEPacketTest.java'
I52
tp1458
asS'testmessenger::MSN::MSNIncomingADDPacketTest.tearDown()'
p1459
(lp1460
(S'testmessenger/MSN/MSNIncomingADDPacketTest.java'
I67
tp1461
asS'testmessenger::MSN::MSNOutgoingADDPacketTest.setUp()'
p1462
(lp1463
(S'testmessenger/MSN/MSNOutgoingADDPacketTest.java'
I55
tp1464
asS'testmessenger::Yahoo::YahooSRV_LISTPacketTest.testGetContentHex()'
p1465
(lp1466
(S'testmessenger/Yahoo/YahooSRV_LISTPacketTest.java'
I83
tp1467
asS'testmessenger::Yahoo::YahooContactTest.testGetNick()'
p1468
(lp1469
(S'testmessenger/Yahoo/YahooContactTest.java'
I83
tp1470
asS'testmessenger::ICQ::ICQProtocolTest.testICQProtocolDataBuffer()'
p1471
(lp1472
(S'testmessenger/ICQ/ICQProtocolTest.java'
I72
tp1473
asS'AssertionLess92'
p1474
(lp1475
(S'testmessenger/UtilsTest.java'
I163
tp1476
asS'AssertionLess91'
p1477
(lp1478
(S'testmessenger/ICQ/ICQCLI_REQLISTSPacketTest.java'
I69
tp1479
asS'AssertionLess90'
p1480
(lp1481
(S'testmessenger/ICQ/ICQSRV_HELLOPacketTest.java'
I65
tp1482
asS'testmessenger::ICQ::ICQCLI_SENDMSGPacketTest.testGetContentHex()'
p1483
(lp1484
(S'testmessenger/ICQ/ICQCLI_SENDMSGPacketTest.java'
I86
tp1485
asS'testmessenger::Yahoo::YahooSRV_MESSAGEPacketTest.testGetKindOfPacket()'
p1486
(lp1487
(S'testmessenger/Yahoo/YahooSRV_MESSAGEPacketTest.java'
I78
tp1488
asS'testmessenger::Yahoo::YahooSRV_LOGOFFPacketTest.testGetKindOfPacket()'
p1489
(lp1490
(S'testmessenger/Yahoo/YahooSRV_LOGOFFPacketTest.java'
I45
tp1491
asS'testmessenger::ICQ::ICQProtocolTest.testGetContactListFromServer()'
p1492
(lp1493
(S'testmessenger/ICQ/ICQProtocolTest.java'
I114
tp1494
asS'testmessenger::MSN::MSNOutgoingADDPacketTest'
p1495
(lp1496
(S'testmessenger/MSN/MSNOutgoingADDPacketTest.java'
I0
tp1497
asS'testmessenger::Yahoo::YahooContactTest.testYahooContactString()'
p1498
(lp1499
(S'testmessenger/Yahoo/YahooContactTest.java'
I64
tp1500
asS'testmessenger::MSN::MSNIncomingCHGPacketTest.tearDown()'
p1501
(lp1502
(S'testmessenger/MSN/MSNIncomingCHGPacketTest.java'
I67
tp1503
asS'testmessenger::MSN::MSNIncomingRNGPacketTest.testSessionID()'
p1504
(lp1505
(S'testmessenger/MSN/MSNIncomingRNGPacketTest.java'
I54
tp1506
asS'testmessenger::MSN::MSNIncomingMSGPacketTest.testContactNick()'
p1507
(lp1508
(S'testmessenger/MSN/MSNIncomingMSGPacketTest.java'
I52
tp1509
asS'testmessenger::MSN::MSNIncomingMSGPacketTest.tearDown()'
p1510
(lp1511
(S'testmessenger/MSN/MSNIncomingMSGPacketTest.java'
I89
tp1512
asS'testmessenger::ICQ::ICQProtocolTest.testGetUIN()'
p1513
(lp1514
(S'testmessenger/ICQ/ICQProtocolTest.java'
I81
tp1515
asS'testmessenger::MSN::MSNOutgoingQRYPacketTest.tearDown()'
p1516
(lp1517
(S'testmessenger/MSN/MSNOutgoingQRYPacketTest.java'
I68
tp1518
asS'testmessenger::MSN::MSNIncomingILNPacketTest.testContent()'
p1519
(lp1520
(S'testmessenger/MSN/MSNIncomingILNPacketTest.java'
I44
tp1521
asS'testmessenger::MSN::MSNIncomingNLNPacketTest.testNick()'
p1522
(lp1523
(S'testmessenger/MSN/MSNIncomingNLNPacketTest.java'
I89
tp1524
asS'testmessenger::MSN::MSNIncomingMSGPacketTest.testContact()'
p1525
(lp1526
(S'testmessenger/MSN/MSNIncomingMSGPacketTest.java'
I48
tp1527
asS'testmessenger::ICQ::ICQCLI_SENDMSGPacketTest.testICQCLI_SENDMSGPacket()'
p1528
(lp1529
(S'testmessenger/ICQ/ICQCLI_SENDMSGPacketTest.java'
I70
tp1530
asS'testmessenger::MSN::MSNIncomingFLNPacketTest.testContact()'
p1531
(lp1532
(S'testmessenger/MSN/MSNIncomingFLNPacketTest.java'
I54
tp1533
asS'testmessenger::MSN::MSNOutgoingINFPacketTest.tearDown()'
p1534
(lp1535
(S'testmessenger/MSN/MSNOutgoingINFPacketTest.java'
I66
tp1536
asS'testmessenger::MSN::MSNIncomingILNPacketTest.testContact()'
p1537
(lp1538
(S'testmessenger/MSN/MSNIncomingILNPacketTest.java'
I54
tp1539
asS'testmessenger::MSN::MSNOutgoingUSRIPacketTest.tearDown()'
p1540
(lp1541
(S'testmessenger/MSN/MSNOutgoingUSRIPacketTest.java'
I69
tp1542
asS'testmessenger::MSN::MSNIncomingADDPacketTest'
p1543
(lp1544
(S'testmessenger/MSN/MSNIncomingADDPacketTest.java'
I0
tp1545
asS'testmessenger::ICQ::ICQCLI_ADDBUDDYPacketTest.setUp()'
p1546
(lp1547
(S'testmessenger/ICQ/ICQCLI_ADDBUDDYPacketTest.java'
I57
tp1548
asS'testmessenger::ICQ::ICQCLI_REQBOSPacketTest.testGetLength()'
p1549
(lp1550
(S'testmessenger/ICQ/ICQCLI_REQBOSPacketTest.java'
I89
tp1551
asS'testmessenger::UtilsTest.testURLQuoted2PlainText(String)'
p1552
(lp1553
(S'testmessenger/UtilsTest.java'
I171
tp1554
asS'testmessenger::ICQ::ICQCLI_COOKIEPacketTest.testICQCLI_COOKIEPacket()'
p1555
(lp1556
(S'testmessenger/ICQ/ICQCLI_COOKIEPacketTest.java'
I68
tp1557
asS'EmptyTest66'
p1558
(lp1559
(S'testmessenger/Yahoo/YahooContactTest.java'
I68
tp1560
asS'EmptyTest64'
p1561
(lp1562
(S'testmessenger/Yahoo/YahooContactTest.java'
I71
tp1563
asS'EmptyTest65'
p1564
(lp1565
(S'testmessenger/MSN/testMSNMessage.java'
I53
tp1566
asS'EmptyTest62'
p1567
(lp1568
(S'testmessenger/MSN/MSNPacketTest.java'
I43
tp1569
asS'EmptyTest63'
p1570
(lp1571
(S'testmessenger/ICQ/ICQCLI_ADDCONTACTPacketTest.java'
I82
tp1572
asS'EmptyTest60'
p1573
(lp1574
(S'testmessenger/ICQ/ICQCLI_CONTACTTest.java'
I71
tp1575
asS'EmptyTest61'
p1576
(lp1577
(S'testmessenger/ICQ/ICQCLI_ADDBUDDYPacketTest.java'
I97
tp1578
asS'testmessenger::Yahoo::YahooContactTest.testSetIP()'
p1579
(lp1580
(S'testmessenger/Yahoo/YahooContactTest.java'
I74
tp1581
asS'testmessenger::ICQ::ICQCLI_REQLOCATIONPacketTest'
p1582
(lp1583
(S'testmessenger/ICQ/ICQCLI_REQLOCATIONPacketTest.java'
I0
tp1584
asS'testmessenger::MSN::MSNIncomingILNPacketTest'
p1585
(lp1586
(S'testmessenger/MSN/MSNIncomingILNPacketTest.java'
I0
tp1587
asS'testmessenger::MSN::MSNOutgoingMSGPacketTest.testContent()'
p1588
(lp1589
(S'testmessenger/MSN/MSNOutgoingMSGPacketTest.java'
I44
tp1590
asS'testmessenger::Yahoo::YahooContactTest.testYahooContactStringStringString()'
p1591
(lp1592
(S'testmessenger/Yahoo/YahooContactTest.java'
I58
tp1593
asS'testmessenger::ICQ::ICQCLI_READYPacketTest.testICQCLI_READYPacket()'
p1594
(lp1595
(S'testmessenger/ICQ/ICQCLI_READYPacketTest.java'
I68
tp1596
asS'testmessenger::ICQ::ICQSRV_COOKIEPacketTest.testICQSRV_FAMILIES2Packet()'
p1597
(lp1598
(S'testmessenger/ICQ/ICQSRV_COOKIEPacketTest.java'
I58
tp1599
asS'testmessenger::ICQ::ICQCLI_ADDCONTACTPacketTest.testGetContentHex()'
p1600
(lp1601
(S'testmessenger/ICQ/ICQCLI_ADDCONTACTPacketTest.java'
I82
tp1602
asS'testmessenger::MSN::MSNIncomingLSTPacketTest.tearDown()'
p1603
(lp1604
(S'testmessenger/MSN/MSNIncomingLSTPacketTest.java'
I86
tp1605
asS'EmptyTest3'
p1606
(lp1607
(S'testmessenger/ICQ/ICQSRV_FAMILIESPacketTest.java'
I66
tp1608
asS'EmptyTest2'
p1609
(lp1610
(S'testmessenger/ICQ/ICQProtocolTest.java'
I81
tp1611
asS'EmptyTest1'
p1612
(lp1613
(S'testmessenger/MSN/MSNOutgoingPacketTest.java'
I42
tp1614
asS'EmptyTest0'
p1615
(lp1616
(S'testmessenger/Yahoo/YahooContactTest.java'
I52
tp1617
asS'EmptyTest7'
p1618
(lp1619
(S'testmessenger/ICQ/ICQProtocolTest.java'
I78
tp1620
asS'EmptyTest6'
p1621
(lp1622
(S'testmessenger/ICQ/ICQProtocolTest.java'
I93
tp1623
asS'EmptyTest5'
p1624
(lp1625
(S'testmessenger/MSN/MSNIncomingPacketTest.java'
I42
tp1626
asS'EmptyTest4'
p1627
(lp1628
(S'testmessenger/ICQ/ICQProtocolTest.java'
I117
tp1629
asS'EmptyTest9'
p1630
(lp1631
(S'testmessenger/UtilsTest.java'
I109
tp1632
asS'EmptyTest8'
p1633
(lp1634
(S'testmessenger/ICQ/ICQSRV_HELLOPacketTest.java'
I75
tp1635
asS'testmessenger::ICQ::ICQProtocolTest.testLoginStringStringStringI()'
p1636
(lp1637
(S'testmessenger/ICQ/ICQProtocolTest.java'
I99
tp1638
asS'testmessenger::ICQ::ICQCLI_RATESREQUESTPacketTest.testGetContentHex()'
p1639
(lp1640
(S'testmessenger/ICQ/ICQCLI_RATESREQUESTPacketTest.java'
I82
tp1641
asS'testmessenger::MSN::MSNOutgoingANSPacketTest.tearDown()'
p1642
(lp1643
(S'testmessenger/MSN/MSNOutgoingANSPacketTest.java'
I70
tp1644
asS'testmessenger::Yahoo::YahooContactTest.testSetStatus()'
p1645
(lp1646
(S'testmessenger/Yahoo/YahooContactTest.java'
I86
tp1647
asS'testmessenger::ICQ::ICQCLI_REQROSTERPacketTest.testGetLength()'
p1648
(lp1649
(S'testmessenger/ICQ/ICQCLI_REQROSTERPacketTest.java'
I83
tp1650
asS'testmessenger::UtilsTest.testTwoByteInt2FourCharString()'
p1651
(lp1652
(S'testmessenger/UtilsTest.java'
I137
tp1653
asS'ForTestersOnly10'
p1654
(lp1655
(S'messenger/MSN/MSNIncomingNLNPacket.java'
I99
tp1656
asS'EmptyTest13'
p1657
(lp1658
(S'testmessenger/ICQ/ICQSRV_HELLOPacketTest.java'
I69
tp1659
asS'EmptyTest12'
p1660
(lp1661
(S'testmessenger/ICQ/ICQCLI_RATESREQUESTPacketTest.java'
I82
tp1662
asS'EmptyTest11'
p1663
(lp1664
(S'testmessenger/ICQ/ICQProtocolTest.java'
I99
tp1665
asS'EmptyTest10'
p1666
(lp1667
(S'testmessenger/ICQ/ICQCLI_RATESREQUESTPacketTest.java'
I68
tp1668
asS'EmptyTest17'
p1669
(lp1670
(S'testmessenger/ICQ/ICQCLI_GOODBYEPacketTest.java'
I68
tp1671
asS'EmptyTest16'
p1672
(lp1673
(S'testmessenger/Yahoo/YahooContactTest.java'
I74
tp1674
asS'EmptyTest15'
p1675
(lp1676
(S'testmessenger/Yahoo/YahooContactTest.java'
I86
tp1677
asS'EmptyTest14'
p1678
(lp1679
(S'testmessenger/ICQ/ICQCLI_CONTACTTest.java'
I79
tp1680
asS'EmptyTest19'
p1681
(lp1682
(S'testmessenger/ICQ/ICQProtocolTest.java'
I111
tp1683
asS'EmptyTest18'
p1684
(lp1685
(S'testmessenger/Yahoo/YahooSRV_LOGOFFPacketTest.java'
I32
tp1686
asS'testmessenger::ICQ::ICQCLI_READYPacketTest'
p1687
(lp1688
(S'testmessenger/ICQ/ICQCLI_READYPacketTest.java'
I0
tp1689
asS'testmessenger::ICQ::ICQCLI_SETICBMPacketTest'
p1690
(lp1691
(S'testmessenger/ICQ/ICQCLI_SETICBMPacketTest.java'
I0
tp1692
asS'testmessenger::MSN::MSNIncomingILNPacketTest.testNick()'
p1693
(lp1694
(S'testmessenger/MSN/MSNIncomingILNPacketTest.java'
I59
tp1695
asS'testmessenger::ICQ::ICQCLI_REQINFOPacketTest'
p1696
(lp1697
(S'testmessenger/ICQ/ICQCLI_REQINFOPacketTest.java'
I0
tp1698
asS'testmessenger::ICQ::ICQCLI_COOKIEPacketTest.testGetKindOfPacket()'
p1699
(lp1700
(S'testmessenger/ICQ/ICQCLI_COOKIEPacketTest.java'
I75
tp1701
asS'testmessenger::ICQ::ICQCLI_ACKRATESPacketTest.testGetLength()'
p1702
(lp1703
(S'testmessenger/ICQ/ICQCLI_ACKRATESPacketTest.java'
I90
tp1704
asS'testmessenger::MSN::MSNOutgoingCHGPacketTest.tearDown()'
p1705
(lp1706
(S'testmessenger/MSN/MSNOutgoingCHGPacketTest.java'
I68
tp1707
asS'testmessenger::Yahoo::YahooSRV_LOGONPacketTest.testGetKindOfPacket()'
p1708
(lp1709
(S'testmessenger/Yahoo/YahooSRV_LOGONPacketTest.java'
I42
tp1710
asS'testmessenger::MSN::MSNIncomingILNPacketTest.setUp()'
p1711
(lp1712
(S'testmessenger/MSN/MSNIncomingILNPacketTest.java'
I71
tp1713
asS'testmessenger::MSN::MSNIncomingPacketTest.tearDown()'
p1714
(lp1715
(S'testmessenger/MSN/MSNIncomingPacketTest.java'
I60
tp1716
asS'testmessenger::MSN::MSNPacketFactoryTest.testIncoming()'
p1717
(lp1718
(S'testmessenger/MSN/MSNPacketFactoryTest.java'
I70
tp1719
asS'testmessenger::Yahoo::YahooSRV_LOGOFFPacketTest'
p1720
(lp1721
(S'testmessenger/Yahoo/YahooSRV_LOGOFFPacketTest.java'
I0
tp1722
asS'testmessenger::ICQ::ICQSRV_HELLOPacketTest.tearDown()'
p1723
(lp1724
(S'testmessenger/ICQ/ICQSRV_HELLOPacketTest.java'
I61
tp1725
asS'testmessenger::ICQ::ICQCLI_FAMILIESPacketTest.tearDown()'
p1726
(lp1727
(S'testmessenger/ICQ/ICQCLI_FAMILIESPacketTest.java'
I64
tp1728
asS'testmessenger::ICQ::ICQProtocolTest.testAddContactICQContact()'
p1729
(lp1730
(S'testmessenger/ICQ/ICQProtocolTest.java'
I93
tp1731
asS'testmessenger::MSN::MSNOutgoingQRYPacketTest.setUp()'
p1732
(lp1733
(S'testmessenger/MSN/MSNOutgoingQRYPacketTest.java'
I55
tp1734
asS'testmessenger::ICQ::ICQProtocolTest'
p1735
(lp1736
(S'testmessenger/ICQ/ICQProtocolTest.java'
I0
tp1737
asS'testmessenger::ICQ::ICQCLI_CONTACTTest.testGetIP()'
p1738
(lp1739
(S'testmessenger/ICQ/ICQCLI_CONTACTTest.java'
I79
tp1740
asS'testmessenger::MSN::MSNOutgoingVERPacketTest.testContent()'
p1741
(lp1742
(S'testmessenger/MSN/MSNOutgoingVERPacketTest.java'
I44
tp1743
asS'testmessenger::ICQ::ICQCLI_FAMILIESPacketTest'
p1744
(lp1745
(S'testmessenger/ICQ/ICQCLI_FAMILIESPacketTest.java'
I0
tp1746
asS'testmessenger::ICQ::ICQCLI_REQLOCATIONPacketTest.testICQCLI_REQLOCATIONPacket()'
p1747
(lp1748
(S'testmessenger/ICQ/ICQCLI_REQLOCATIONPacketTest.java'
I69
tp1749
asS'testmessenger::MSN::MSNIncomingINFPacketTest.testEncryption()'
p1750
(lp1751
(S'testmessenger/MSN/MSNIncomingINFPacketTest.java'
I49
tp1752
asS'VerboseTest2'
p1753
(lp1754
(S'testmessenger/MSN/MSNIncomingNLNPacketTest.java'
I49
tp1755
asS'VerboseTest3'
p1756
(lp1757
(S'testmessenger/UtilsTest.java'
I113
tp1758
asS'VerboseTest0'
p1759
(lp1760
(S'testmessenger/UtilsTest.java'
I49
tp1761
asS'VerboseTest1'
p1762
(lp1763
(S'testmessenger/ICQ/ICQSRV_REPLYROSTERPacketTest.java'
I85
tp1764
asS'testmessenger::ICQ::ICQCLI_SETSTATUSPacketTest.testGetKindOfPacket()'
p1765
(lp1766
(S'testmessenger/ICQ/ICQCLI_SETSTATUSPacketTest.java'
I80
tp1767
asS'testmessenger::ICQ::ICQCLI_ADDCONTACTPacketTest.testGetKindOfPacket()'
p1768
(lp1769
(S'testmessenger/ICQ/ICQCLI_ADDCONTACTPacketTest.java'
I74
tp1770
asS'testmessenger::MSN::MSNOutgoingLSTPacketTest.testContent()'
p1771
(lp1772
(S'testmessenger/MSN/MSNOutgoingLSTPacketTest.java'
I44
tp1773
asS'testmessenger::MSN::MSNOutgoingXFRPacketTest.testContent()'
p1774
(lp1775
(S'testmessenger/MSN/MSNOutgoingXFRPacketTest.java'
I44
tp1776
asS'testmessenger::ICQ::ICQCLI_RATESREQUESTPacketTest.testSetKindOfPacket()'
p1777
(lp1778
(S'testmessenger/ICQ/ICQCLI_RATESREQUESTPacketTest.java'
I71
tp1779
asS'testmessenger::ICQ::ICQSRV_HELLOPacketTest.testGetContentHex()'
p1780
(lp1781
(S'testmessenger/ICQ/ICQSRV_HELLOPacketTest.java'
I72
tp1782
asS'testmessenger::MSN::MSNOutgoingXFRPacketTest.setUp()'
p1783
(lp1784
(S'testmessenger/MSN/MSNOutgoingXFRPacketTest.java'
I55
tp1785
asS'testmessenger::ICQ::ICQCLI_ADDCONTACTPacketTest.setUp()'
p1786
(lp1787
(S'testmessenger/ICQ/ICQCLI_ADDCONTACTPacketTest.java'
I57
tp1788
asS'testmessenger::MSN::MSNIncomingLSTPacketTest.testNrOfContacts()'
p1789
(lp1790
(S'testmessenger/MSN/MSNIncomingLSTPacketTest.java'
I59
tp1791
asS'testmessenger::Yahoo::YahooSRV_LOGONPacketTest.testGetContentHex()'
p1792
(lp1793
(S'testmessenger/Yahoo/YahooSRV_LOGONPacketTest.java'
I48
tp1794
asS'testmessenger::Yahoo::YahooSRV_AUTH_RESPPacketTest.testGetKindOfPacket()'
p1795
(lp1796
(S'testmessenger/Yahoo/YahooSRV_AUTH_RESPPacketTest.java'
I32
tp1797
asS'testmessenger::ICQ::ICQCLI_FAMILIESPacketTest.testICQCLI_FAMILIESPacket()'
p1798
(lp1799
(S'testmessenger/ICQ/ICQCLI_FAMILIESPacketTest.java'
I68
tp1800
asS'testmessenger::MSN::MSNIncomingINFPacketTest.tearDown()'
p1801
(lp1802
(S'testmessenger/MSN/MSNIncomingINFPacketTest.java'
I71
tp1803
asS'testmessenger::MSN::MSNIncomingCHGPacketTest.testContent()'
p1804
(lp1805
(S'testmessenger/MSN/MSNIncomingCHGPacketTest.java'
I48
tp1806
asS'testmessenger::ICQ::ICQCLI_ACKRATESPacketTest.tearDown()'
p1807
(lp1808
(S'testmessenger/ICQ/ICQCLI_ACKRATESPacketTest.java'
I64
tp1809
asS'testmessenger::UtilsTest.testCharToNibble()'
p1810
(lp1811
(S'testmessenger/UtilsTest.java'
I45
tp1812
asS'testmessenger::UtilsTest.testHexString2AsciiString(String)'
p1813
(lp1814
(S'testmessenger/UtilsTest.java'
I167
tp1815
asS'testmessenger::Yahoo::YahooSRV_LOGONPacketTest.testGetStatus()'
p1816
(lp1817
(S'testmessenger/Yahoo/YahooSRV_LOGONPacketTest.java'
I36
tp1818
asS'testmessenger::ICQ::ICQCLI_CONTACTTest.testGetNick()'
p1819
(lp1820
(S'testmessenger/ICQ/ICQCLI_CONTACTTest.java'
I75
tp1821
asS'AssertionLess78'
p1822
(lp1823
(S'testmessenger/ICQ/ICQSRV_HELLOPacketTest.java'
I72
tp1824
asS'testmessenger::MSN::MSNProtocolTest'
p1825
(lp1826
(S'testmessenger/MSN/MSNProtocolTest.java'
I0
tp1827
asS'testmessenger::ICQ::ICQCLI_REQLISTSPacketTest.testICQCLI_REQLISTSPacket()'
p1828
(lp1829
(S'testmessenger/ICQ/ICQCLI_REQLISTSPacketTest.java'
I69
tp1830
asS'AssertionLess71'
p1831
(lp1832
(S'testmessenger/ICQ/ICQCLI_GOODBYEPacketTest.java'
I68
tp1833
asS'AssertionLess70'
p1834
(lp1835
(S'testmessenger/ICQ/ICQCLI_RATESREQUESTPacketTest.java'
I68
tp1836
asS'AssertionLess73'
p1837
(lp1838
(S'testmessenger/Yahoo/YahooSRV_LOGOFFPacketTest.java'
I32
tp1839
asS'AssertionLess72'
p1840
(lp1841
(S'testmessenger/ICQ/ICQCLI_REQLOCATIONPacketTest.java'
I69
tp1842
asS'AssertionLess75'
p1843
(lp1844
(S'testmessenger/ICQ/ICQCLI_CONTACTTest.java'
I75
tp1845
asS'AssertionLess74'
p1846
(lp1847
(S'testmessenger/MSN/MSNSessionTest.java'
I41
tp1848
asS'AssertionLess77'
p1849
(lp1850
(S'testmessenger/ICQ/ICQCLI_RATESREQUESTPacketTest.java'
I71
tp1851
asS'AssertionLess76'
p1852
(lp1853
(S'testmessenger/ICQ/ICQSRV_HELLOPacketTest.java'
I69
tp1854
as.